(dp1
S'output'
p2
S"<type 'exceptions.NameError'> global name 'date' is not defined"
p3
sS'layer'
p4
S'/home/andromeda/work/graphing/web2py/applications/testtest/controllers/utils.py'
p5
sS'code'
p6
S'\n\'\'\'\n1. Store data as\n    {"timestamp":<>, "name":<>, "value":<>}\n\n2. Create new data points and store them along with previous data\n\n    Operations on data:\n        Standard Deviation\n        Moving Average\n        DailyChange\n        Aggregate Over a Period\n        Arithmatic operation on Params with \'i\' as index\n\n\nmongo.get return [(data, ts)...]\n\'\'\'\nimport json\nimport numpy as np\nfrom pymongo import Connection\nconnection = Connection(\'localhost\', 27017)\nDB = connection.timeseries_data\nTable = DB.DataStore\n\n\ndef api():\n    t = request.vars[\'type\']\n    return json.dumps(FuncDict[t](**request.vars))\n\ndef index():\n    response.view = \'main.html\'\n    return dict()\n    \ndef rolling_window(a, window):\n    shape = a.shape[:-1] + (a.shape[-1] - window + 1, window)   \n    strides = a.strides + (a.strides[-1],)\n    return np.lib.stride_tricks.as_strided(a, shape=shape, strides=strides)\n\ndef get_params(*args, **kwargs):\n    return ["EOI", "ACC", "REG"]\n    \ndef store(data):\n    res=[]\n    for e in data:\n        for k,v in e.items():\n            if k=="timestamp":continue\n            res.append({"timestamp":e["timestamp"], "name":k, "value":v})\n    Table.insert(res)\n    return True\n\ndef get(name, start_ts=0, num=None, **kwargs):\n    res = [[e["value"], date.fromordinal(e["timestamp"]).strftime("%Y-%m-%d")] for e in Table.find({"name":name, "timestamp":{"$gte":start_ts}})]\n    if num:res=res[:num]\n    return res\n\ndef sd(name, *args, **kwargs):\n    d = get(name)\n    return calculate_sd_snap(d)\n\ndef mean(name, *args, **kwargs):\n    d = get(name)\n    return calculate_mean_snap(d)\n\ndef sd_rolling(name, step, *args, **kwargs):\n    d = get(name)\n    step = int(step)\n    return calculate_sd_rolling(d, step)\n\ndef mean_rolling(name,step, *args, **kwargs):\n    d = get(name)\n    step = int(step)\n    return calculate_mean_rolling(d, step)\n\ndef dailychange(name, *args, **kwargs):\n    d = get(name)\n    data, ts = [e[0] for e in d], [e[1] for e in d]\n    data = [x - data[i-1] if i else None for i, x in enumerate(data)][1:]\n    return zip(data, ts[1:])\n\ndef ag_over_time(name, step, *args, **kwargs):\n    d = get(name)\n    step=int(step)\n    data, ts = [e[0] for e in d], [e[1] for e in d]\n    data = [ [sum(data[i*step: (i+1)*step]), ts[(i+1)*step-1]] for i in range(len(data)/float(step)) ]\n    return data \n\ndef calculate_mean_snap(data):\n    d, ts = [e[0] for e in data], [e[1] for e in data]\n    d = np.array(d)\n    data = [[np.mean(d[:i]), ts[i-1]] for i in range(1,len(d)+1)]\n    return data\n\ndef calculate_sd_snap(data):\n    d, ts = [e[0] for e in data], [e[1] for e in data]\n    d = np.array(d)\n    data = [[np.std(d[:i]), ts[i-1]] for i in range(1,len(d)+1)]\n    return data\n\ndef calculate_mean_rolling(data, step):\n    data, ts = [e[0] for e in data], [e[1] for e in data]\n    data = np.mean(rolling_window(np.array(data), step), -1)\n    data = [[val, ts[index+step-1]] for (index, val) in enumerate(data)] \n    #data = [ [np.mean(np.array(data[i*step: (i+1)*step])), ts[(i+1)*step]] for i in range(len(data)/float(step)) ]\n    return data \n\ndef calculate_sd_rolling(data, step):\n    data, ts = [e[0] for e in data], [e[1] for e in data]\n    data = np.std(rolling_window(np.array(data), step), -1)\n    data = [[val, ts[index+step-1]] for (index, val) in enumerate(data)] \n    #data = [ [np.std(np.array(data[i*step: (i+1)*step])), ts[(i+1)*step]] for i in range(len(data)/float(step)) ]\n    return data\n\nFuncDict = {\n    \'get\': get,\n    \'sd\': sd,\n    \'mean\': mean,\n    \'sd_rolling\': sd_rolling,\n    \'mean_rolling\': mean_rolling,\n    \'dailychange\': dailychange,\n    \'ag_over_time\': ag_over_time,\n    \'get_params\': get_params,\n}\n\nresponse._vars=response._caller(api)\n'
p7
sS'snapshot'
p8
(dp9
S'exception'
p10
(dp11
S'__hash__'
p12
S"<method-wrapper '__hash__' of exceptions.NameError object>"
p13
sS'__setattr__'
p14
S"<method-wrapper '__setattr__' of exceptions.NameError object>"
p15
sS'__reduce_ex__'
p16
S'<built-in method __reduce_ex__ of exceptions.NameError object>'
p17
sS'__getslice__'
p18
S"<method-wrapper '__getslice__' of exceptions.NameError object>"
p19
sS'__getitem__'
p20
S"<method-wrapper '__getitem__' of exceptions.NameError object>"
p21
sS'__setstate__'
p22
S'<built-in method __setstate__ of exceptions.NameError object>'
p23
sS'args'
p24
S'("global name \'date\' is not defined",)'
p25
sS'__reduce__'
p26
S'<built-in method __reduce__ of exceptions.NameError object>'
p27
sS'__str__'
p28
S"<method-wrapper '__str__' of exceptions.NameError object>"
p29
sS'__format__'
p30
S'<built-in method __format__ of exceptions.NameError object>'
p31
sS'__getattribute__'
p32
S"<method-wrapper '__getattribute__' of exceptions.NameError object>"
p33
sS'__class__'
p34
S"<type 'exceptions.NameError'>"
p35
sS'__unicode__'
p36
S'<built-in method __unicode__ of exceptions.NameError object>'
p37
sS'__delattr__'
p38
S"<method-wrapper '__delattr__' of exceptions.NameError object>"
p39
sS'__subclasshook__'
p40
S'<built-in method __subclasshook__ of type object>'
p41
sS'__repr__'
p42
S"<method-wrapper '__repr__' of exceptions.NameError object>"
p43
sS'__dict__'
p44
S'{}'
p45
sS'__sizeof__'
p46
S'<built-in method __sizeof__ of exceptions.NameError object>'
p47
sS'__doc__'
p48
S"'Name not found globally.'"
p49
sS'__init__'
p50
S"<method-wrapper '__init__' of exceptions.NameError object>"
p51
sS'__new__'
p52
S'<built-in method __new__ of type object>'
p53
ssS'evalue'
p54
S"global name 'date' is not defined"
p55
sS'request'
p56
ccopy_reg
_reconstructor
p57
(cgluon.html
BEAUTIFY
p58
c__builtin__
object
p59
NtRp60
(dp61
S'attributes'
p62
(dp63
sS'components'
p64
(lp65
g57
(cgluon.html
TABLE
p66
g59
NtRp67
(dp68
g62
(dp69
S'level'
p70
I5
ssS'parent'
p71
Nsg64
(lp72
g57
(cgluon.html
TR
p73
g59
NtRp74
(dp75
g62
(dp76
sg71
g67
sg64
(lp77
g57
(cgluon.html
TD
p78
g59
NtRp79
(dp80
g62
(dp81
S'_style'
p82
S'font-weight:bold;vertical-align:top'
p83
ssg71
g74
sg64
(lp84
S'ajax'
p85
asbag57
(g78
g59
NtRp86
(dp87
g62
(dp88
S'_valign'
p89
S'top'
p90
ssg71
g74
sg64
(lp91
S':'
asbag57
(g78
g59
NtRp92
(dp93
g62
(dp94
sg71
g74
sg64
(lp95
g57
(g58
g59
NtRp96
(dp97
g62
(dp98
g70
I5
ssg71
g92
sg64
(lp99
S'True'
p100
asbasbasbag57
(g73
g59
NtRp101
(dp102
g62
(dp103
sg71
g67
sg64
(lp104
g57
(g78
g59
NtRp105
(dp106
g62
(dp107
g82
g83
ssg71
g101
sg64
(lp108
S'application'
p109
asbag57
(g78
g59
NtRp110
(dp111
g62
(dp112
g89
g90
ssg71
g101
sg64
(lp113
S':'
asbag57
(g78
g59
NtRp114
(dp115
g62
(dp116
sg71
g101
sg64
(lp117
g57
(g58
g59
NtRp118
(dp119
g62
(dp120
g70
I5
ssg71
g114
sg64
(lp121
S'testtest'
p122
asbasbasbag57
(g73
g59
NtRp123
(dp124
g62
(dp125
sg71
g67
sg64
(lp126
g57
(g78
g59
NtRp127
(dp128
g62
(dp129
g82
g83
ssg71
g123
sg64
(lp130
g24
asbag57
(g78
g59
NtRp131
(dp132
g62
(dp133
g89
g90
ssg71
g123
sg64
(lp134
S':'
asbag57
(g78
g59
NtRp135
(dp136
g62
(dp137
sg71
g123
sg64
(lp138
g57
(g58
g59
NtRp139
(dp140
g62
(dp141
g70
I5
ssg71
g135
sg64
(lp142
g57
(g66
g59
NtRp143
(dp144
g62
(dp145
g70
I4
ssg71
Nsg64
(lp146
sbasbasbasbag57
(g73
g59
NtRp147
(dp148
g62
(dp149
sg71
g67
sg64
(lp150
g57
(g78
g59
NtRp151
(dp152
g62
(dp153
g82
g83
ssg71
g147
sg64
(lp154
S'body'
p155
asbag57
(g78
g59
NtRp156
(dp157
g62
(dp158
g89
g90
ssg71
g147
sg64
(lp159
S':'
asbag57
(g78
g59
NtRp160
(dp161
g62
(dp162
sg71
g147
sg64
(lp163
g57
(g58
g59
NtRp164
(dp165
g62
(dp166
g70
I5
ssg71
g160
sg64
(lp167
S'<cStringIO.StringO object at 0x235e730>'
p168
asbasbasbag57
(g73
g59
NtRp169
(dp170
g62
(dp171
sg71
g67
sg64
(lp172
g57
(g78
g59
NtRp173
(dp174
g62
(dp175
g82
g83
ssg71
g169
sg64
(lp176
S'client'
p177
asbag57
(g78
g59
NtRp178
(dp179
g62
(dp180
g89
g90
ssg71
g169
sg64
(lp181
S':'
asbag57
(g78
g59
NtRp182
(dp183
g62
(dp184
sg71
g169
sg64
(lp185
g57
(g58
g59
NtRp186
(dp187
g62
(dp188
g70
I5
ssg71
g182
sg64
(lp189
S'127.0.0.1'
p190
asbasbasbag57
(g73
g59
NtRp191
(dp192
g62
(dp193
sg71
g67
sg64
(lp194
g57
(g78
g59
NtRp195
(dp196
g62
(dp197
g82
g83
ssg71
g191
sg64
(lp198
S'controller'
p199
asbag57
(g78
g59
NtRp200
(dp201
g62
(dp202
g89
g90
ssg71
g191
sg64
(lp203
S':'
asbag57
(g78
g59
NtRp204
(dp205
g62
(dp206
sg71
g191
sg64
(lp207
g57
(g58
g59
NtRp208
(dp209
g62
(dp210
g70
I5
ssg71
g204
sg64
(lp211
S'utils'
p212
asbasbasbag57
(g73
g59
NtRp213
(dp214
g62
(dp215
sg71
g67
sg64
(lp216
g57
(g78
g59
NtRp217
(dp218
g62
(dp219
g82
g83
ssg71
g213
sg64
(lp220
S'cookies'
p221
asbag57
(g78
g59
NtRp222
(dp223
g62
(dp224
g89
g90
ssg71
g213
sg64
(lp225
S':'
asbag57
(g78
g59
NtRp226
(dp227
g62
(dp228
sg71
g213
sg64
(lp229
g57
(g58
g59
NtRp230
(dp231
g62
(dp232
g70
I5
ssg71
g226
sg64
(lp233
g57
(g66
g59
NtRp234
(dp235
g62
(dp236
g70
I4
ssg71
Nsg64
(lp237
g57
(g73
g59
NtRp238
(dp239
g62
(dp240
sg71
g234
sg64
(lp241
g57
(g78
g59
NtRp242
(dp243
g62
(dp244
g82
g83
ssg71
g238
sg64
(lp245
S'session_id_admin'
p246
asbag57
(g78
g59
NtRp247
(dp248
g62
(dp249
g89
g90
ssg71
g238
sg64
(lp250
S':'
asbag57
(g78
g59
NtRp251
(dp252
g62
(dp253
sg71
g238
sg64
(lp254
g57
(g58
g59
NtRp255
(dp256
g62
(dp257
g70
I4
ssg71
g251
sg64
(lp258
g57
(g66
g59
NtRp259
(dp260
g62
(dp261
g70
I3
ssg71
Nsg64
(lp262
g57
(g73
g59
NtRp263
(dp264
g62
(dp265
sg71
g259
sg64
(lp266
g57
(g78
g59
NtRp267
(dp268
g62
(dp269
g82
g83
ssg71
g263
sg64
(lp270
S'comment'
p271
asbag57
(g78
g59
NtRp272
(dp273
g62
(dp274
g89
g90
ssg71
g263
sg64
(lp275
S':'
asbag57
(g78
g59
NtRp276
(dp277
g62
(dp278
sg71
g263
sg64
(lp279
g57
(g58
g59
NtRp280
(dp281
g62
(dp282
g70
I3
ssg71
g276
sg64
(lp283
S''
asbasbasbag57
(g73
g59
NtRp284
(dp285
g62
(dp286
sg71
g259
sg64
(lp287
g57
(g78
g59
NtRp288
(dp289
g62
(dp290
g82
g83
ssg71
g284
sg64
(lp291
S'domain'
p292
asbag57
(g78
g59
NtRp293
(dp294
g62
(dp295
g89
g90
ssg71
g284
sg64
(lp296
S':'
asbag57
(g78
g59
NtRp297
(dp298
g62
(dp299
sg71
g284
sg64
(lp300
g57
(g58
g59
NtRp301
(dp302
g62
(dp303
g70
I3
ssg71
g297
sg64
(lp304
S''
asbasbasbag57
(g73
g59
NtRp305
(dp306
g62
(dp307
sg71
g259
sg64
(lp308
g57
(g78
g59
NtRp309
(dp310
g62
(dp311
g82
g83
ssg71
g305
sg64
(lp312
S'expires'
p313
asbag57
(g78
g59
NtRp314
(dp315
g62
(dp316
g89
g90
ssg71
g305
sg64
(lp317
S':'
asbag57
(g78
g59
NtRp318
(dp319
g62
(dp320
sg71
g305
sg64
(lp321
g57
(g58
g59
NtRp322
(dp323
g62
(dp324
g70
I3
ssg71
g318
sg64
(lp325
S''
asbasbasbag57
(g73
g59
NtRp326
(dp327
g62
(dp328
sg71
g259
sg64
(lp329
g57
(g78
g59
NtRp330
(dp331
g62
(dp332
g82
g83
ssg71
g326
sg64
(lp333
S'httponly'
p334
asbag57
(g78
g59
NtRp335
(dp336
g62
(dp337
g89
g90
ssg71
g326
sg64
(lp338
S':'
asbag57
(g78
g59
NtRp339
(dp340
g62
(dp341
sg71
g326
sg64
(lp342
g57
(g58
g59
NtRp343
(dp344
g62
(dp345
g70
I3
ssg71
g339
sg64
(lp346
S''
asbasbasbag57
(g73
g59
NtRp347
(dp348
g62
(dp349
sg71
g259
sg64
(lp350
g57
(g78
g59
NtRp351
(dp352
g62
(dp353
g82
g83
ssg71
g347
sg64
(lp354
S'max-age'
p355
asbag57
(g78
g59
NtRp356
(dp357
g62
(dp358
g89
g90
ssg71
g347
sg64
(lp359
S':'
asbag57
(g78
g59
NtRp360
(dp361
g62
(dp362
sg71
g347
sg64
(lp363
g57
(g58
g59
NtRp364
(dp365
g62
(dp366
g70
I3
ssg71
g360
sg64
(lp367
S''
asbasbasbag57
(g73
g59
NtRp368
(dp369
g62
(dp370
sg71
g259
sg64
(lp371
g57
(g78
g59
NtRp372
(dp373
g62
(dp374
g82
g83
ssg71
g368
sg64
(lp375
S'path'
p376
asbag57
(g78
g59
NtRp377
(dp378
g62
(dp379
g89
g90
ssg71
g368
sg64
(lp380
S':'
asbag57
(g78
g59
NtRp381
(dp382
g62
(dp383
sg71
g368
sg64
(lp384
g57
(g58
g59
NtRp385
(dp386
g62
(dp387
g70
I3
ssg71
g381
sg64
(lp388
S''
asbasbasbag57
(g73
g59
NtRp389
(dp390
g62
(dp391
sg71
g259
sg64
(lp392
g57
(g78
g59
NtRp393
(dp394
g62
(dp395
g82
g83
ssg71
g389
sg64
(lp396
S'secure'
p397
asbag57
(g78
g59
NtRp398
(dp399
g62
(dp400
g89
g90
ssg71
g389
sg64
(lp401
S':'
asbag57
(g78
g59
NtRp402
(dp403
g62
(dp404
sg71
g389
sg64
(lp405
g57
(g58
g59
NtRp406
(dp407
g62
(dp408
g70
I3
ssg71
g402
sg64
(lp409
S''
asbasbasbag57
(g73
g59
NtRp410
(dp411
g62
(dp412
sg71
g259
sg64
(lp413
g57
(g78
g59
NtRp414
(dp415
g62
(dp416
g82
g83
ssg71
g410
sg64
(lp417
S'version'
p418
asbag57
(g78
g59
NtRp419
(dp420
g62
(dp421
g89
g90
ssg71
g410
sg64
(lp422
S':'
asbag57
(g78
g59
NtRp423
(dp424
g62
(dp425
sg71
g410
sg64
(lp426
g57
(g58
g59
NtRp427
(dp428
g62
(dp429
g70
I3
ssg71
g423
sg64
(lp430
S''
asbasbasbasbasbasbasbag57
(g73
g59
NtRp431
(dp432
g62
(dp433
sg71
g234
sg64
(lp434
g57
(g78
g59
NtRp435
(dp436
g62
(dp437
g82
g83
ssg71
g431
sg64
(lp438
S'session_id_testtest'
p439
asbag57
(g78
g59
NtRp440
(dp441
g62
(dp442
g89
g90
ssg71
g431
sg64
(lp443
S':'
asbag57
(g78
g59
NtRp444
(dp445
g62
(dp446
sg71
g431
sg64
(lp447
g57
(g58
g59
NtRp448
(dp449
g62
(dp450
g70
I4
ssg71
g444
sg64
(lp451
g57
(g66
g59
NtRp452
(dp453
g62
(dp454
g70
I3
ssg71
Nsg64
(lp455
g57
(g73
g59
NtRp456
(dp457
g62
(dp458
sg71
g452
sg64
(lp459
g57
(g78
g59
NtRp460
(dp461
g62
(dp462
g82
g83
ssg71
g456
sg64
(lp463
g271
asbag57
(g78
g59
NtRp464
(dp465
g62
(dp466
g89
g90
ssg71
g456
sg64
(lp467
S':'
asbag57
(g78
g59
NtRp468
(dp469
g62
(dp470
sg71
g456
sg64
(lp471
g57
(g58
g59
NtRp472
(dp473
g62
(dp474
g70
I3
ssg71
g468
sg64
(lp475
S''
asbasbasbag57
(g73
g59
NtRp476
(dp477
g62
(dp478
sg71
g452
sg64
(lp479
g57
(g78
g59
NtRp480
(dp481
g62
(dp482
g82
g83
ssg71
g476
sg64
(lp483
g292
asbag57
(g78
g59
NtRp484
(dp485
g62
(dp486
g89
g90
ssg71
g476
sg64
(lp487
S':'
asbag57
(g78
g59
NtRp488
(dp489
g62
(dp490
sg71
g476
sg64
(lp491
g57
(g58
g59
NtRp492
(dp493
g62
(dp494
g70
I3
ssg71
g488
sg64
(lp495
S''
asbasbasbag57
(g73
g59
NtRp496
(dp497
g62
(dp498
sg71
g452
sg64
(lp499
g57
(g78
g59
NtRp500
(dp501
g62
(dp502
g82
g83
ssg71
g496
sg64
(lp503
g313
asbag57
(g78
g59
NtRp504
(dp505
g62
(dp506
g89
g90
ssg71
g496
sg64
(lp507
S':'
asbag57
(g78
g59
NtRp508
(dp509
g62
(dp510
sg71
g496
sg64
(lp511
g57
(g58
g59
NtRp512
(dp513
g62
(dp514
g70
I3
ssg71
g508
sg64
(lp515
S''
asbasbasbag57
(g73
g59
NtRp516
(dp517
g62
(dp518
sg71
g452
sg64
(lp519
g57
(g78
g59
NtRp520
(dp521
g62
(dp522
g82
g83
ssg71
g516
sg64
(lp523
g334
asbag57
(g78
g59
NtRp524
(dp525
g62
(dp526
g89
g90
ssg71
g516
sg64
(lp527
S':'
asbag57
(g78
g59
NtRp528
(dp529
g62
(dp530
sg71
g516
sg64
(lp531
g57
(g58
g59
NtRp532
(dp533
g62
(dp534
g70
I3
ssg71
g528
sg64
(lp535
S''
asbasbasbag57
(g73
g59
NtRp536
(dp537
g62
(dp538
sg71
g452
sg64
(lp539
g57
(g78
g59
NtRp540
(dp541
g62
(dp542
g82
g83
ssg71
g536
sg64
(lp543
g355
asbag57
(g78
g59
NtRp544
(dp545
g62
(dp546
g89
g90
ssg71
g536
sg64
(lp547
S':'
asbag57
(g78
g59
NtRp548
(dp549
g62
(dp550
sg71
g536
sg64
(lp551
g57
(g58
g59
NtRp552
(dp553
g62
(dp554
g70
I3
ssg71
g548
sg64
(lp555
S''
asbasbasbag57
(g73
g59
NtRp556
(dp557
g62
(dp558
sg71
g452
sg64
(lp559
g57
(g78
g59
NtRp560
(dp561
g62
(dp562
g82
g83
ssg71
g556
sg64
(lp563
g376
asbag57
(g78
g59
NtRp564
(dp565
g62
(dp566
g89
g90
ssg71
g556
sg64
(lp567
S':'
asbag57
(g78
g59
NtRp568
(dp569
g62
(dp570
sg71
g556
sg64
(lp571
g57
(g58
g59
NtRp572
(dp573
g62
(dp574
g70
I3
ssg71
g568
sg64
(lp575
S''
asbasbasbag57
(g73
g59
NtRp576
(dp577
g62
(dp578
sg71
g452
sg64
(lp579
g57
(g78
g59
NtRp580
(dp581
g62
(dp582
g82
g83
ssg71
g576
sg64
(lp583
g397
asbag57
(g78
g59
NtRp584
(dp585
g62
(dp586
g89
g90
ssg71
g576
sg64
(lp587
S':'
asbag57
(g78
g59
NtRp588
(dp589
g62
(dp590
sg71
g576
sg64
(lp591
g57
(g58
g59
NtRp592
(dp593
g62
(dp594
g70
I3
ssg71
g588
sg64
(lp595
S''
asbasbasbag57
(g73
g59
NtRp596
(dp597
g62
(dp598
sg71
g452
sg64
(lp599
g57
(g78
g59
NtRp600
(dp601
g62
(dp602
g82
g83
ssg71
g596
sg64
(lp603
g418
asbag57
(g78
g59
NtRp604
(dp605
g62
(dp606
g89
g90
ssg71
g596
sg64
(lp607
S':'
asbag57
(g78
g59
NtRp608
(dp609
g62
(dp610
sg71
g596
sg64
(lp611
g57
(g58
g59
NtRp612
(dp613
g62
(dp614
g70
I3
ssg71
g608
sg64
(lp615
S''
asbasbasbasbasbasbasbag57
(g73
g59
NtRp616
(dp617
g62
(dp618
sg71
g234
sg64
(lp619
g57
(g78
g59
NtRp620
(dp621
g62
(dp622
g82
g83
ssg71
g616
sg64
(lp623
S'session_id_welcome'
p624
asbag57
(g78
g59
NtRp625
(dp626
g62
(dp627
g89
g90
ssg71
g616
sg64
(lp628
S':'
asbag57
(g78
g59
NtRp629
(dp630
g62
(dp631
sg71
g616
sg64
(lp632
g57
(g58
g59
NtRp633
(dp634
g62
(dp635
g70
I4
ssg71
g629
sg64
(lp636
g57
(g66
g59
NtRp637
(dp638
g62
(dp639
g70
I3
ssg71
Nsg64
(lp640
g57
(g73
g59
NtRp641
(dp642
g62
(dp643
sg71
g637
sg64
(lp644
g57
(g78
g59
NtRp645
(dp646
g62
(dp647
g82
g83
ssg71
g641
sg64
(lp648
g271
asbag57
(g78
g59
NtRp649
(dp650
g62
(dp651
g89
g90
ssg71
g641
sg64
(lp652
S':'
asbag57
(g78
g59
NtRp653
(dp654
g62
(dp655
sg71
g641
sg64
(lp656
g57
(g58
g59
NtRp657
(dp658
g62
(dp659
g70
I3
ssg71
g653
sg64
(lp660
S''
asbasbasbag57
(g73
g59
NtRp661
(dp662
g62
(dp663
sg71
g637
sg64
(lp664
g57
(g78
g59
NtRp665
(dp666
g62
(dp667
g82
g83
ssg71
g661
sg64
(lp668
g292
asbag57
(g78
g59
NtRp669
(dp670
g62
(dp671
g89
g90
ssg71
g661
sg64
(lp672
S':'
asbag57
(g78
g59
NtRp673
(dp674
g62
(dp675
sg71
g661
sg64
(lp676
g57
(g58
g59
NtRp677
(dp678
g62
(dp679
g70
I3
ssg71
g673
sg64
(lp680
S''
asbasbasbag57
(g73
g59
NtRp681
(dp682
g62
(dp683
sg71
g637
sg64
(lp684
g57
(g78
g59
NtRp685
(dp686
g62
(dp687
g82
g83
ssg71
g681
sg64
(lp688
g313
asbag57
(g78
g59
NtRp689
(dp690
g62
(dp691
g89
g90
ssg71
g681
sg64
(lp692
S':'
asbag57
(g78
g59
NtRp693
(dp694
g62
(dp695
sg71
g681
sg64
(lp696
g57
(g58
g59
NtRp697
(dp698
g62
(dp699
g70
I3
ssg71
g693
sg64
(lp700
S''
asbasbasbag57
(g73
g59
NtRp701
(dp702
g62
(dp703
sg71
g637
sg64
(lp704
g57
(g78
g59
NtRp705
(dp706
g62
(dp707
g82
g83
ssg71
g701
sg64
(lp708
g334
asbag57
(g78
g59
NtRp709
(dp710
g62
(dp711
g89
g90
ssg71
g701
sg64
(lp712
S':'
asbag57
(g78
g59
NtRp713
(dp714
g62
(dp715
sg71
g701
sg64
(lp716
g57
(g58
g59
NtRp717
(dp718
g62
(dp719
g70
I3
ssg71
g713
sg64
(lp720
S''
asbasbasbag57
(g73
g59
NtRp721
(dp722
g62
(dp723
sg71
g637
sg64
(lp724
g57
(g78
g59
NtRp725
(dp726
g62
(dp727
g82
g83
ssg71
g721
sg64
(lp728
g355
asbag57
(g78
g59
NtRp729
(dp730
g62
(dp731
g89
g90
ssg71
g721
sg64
(lp732
S':'
asbag57
(g78
g59
NtRp733
(dp734
g62
(dp735
sg71
g721
sg64
(lp736
g57
(g58
g59
NtRp737
(dp738
g62
(dp739
g70
I3
ssg71
g733
sg64
(lp740
S''
asbasbasbag57
(g73
g59
NtRp741
(dp742
g62
(dp743
sg71
g637
sg64
(lp744
g57
(g78
g59
NtRp745
(dp746
g62
(dp747
g82
g83
ssg71
g741
sg64
(lp748
g376
asbag57
(g78
g59
NtRp749
(dp750
g62
(dp751
g89
g90
ssg71
g741
sg64
(lp752
S':'
asbag57
(g78
g59
NtRp753
(dp754
g62
(dp755
sg71
g741
sg64
(lp756
g57
(g58
g59
NtRp757
(dp758
g62
(dp759
g70
I3
ssg71
g753
sg64
(lp760
S''
asbasbasbag57
(g73
g59
NtRp761
(dp762
g62
(dp763
sg71
g637
sg64
(lp764
g57
(g78
g59
NtRp765
(dp766
g62
(dp767
g82
g83
ssg71
g761
sg64
(lp768
g397
asbag57
(g78
g59
NtRp769
(dp770
g62
(dp771
g89
g90
ssg71
g761
sg64
(lp772
S':'
asbag57
(g78
g59
NtRp773
(dp774
g62
(dp775
sg71
g761
sg64
(lp776
g57
(g58
g59
NtRp777
(dp778
g62
(dp779
g70
I3
ssg71
g773
sg64
(lp780
S''
asbasbasbag57
(g73
g59
NtRp781
(dp782
g62
(dp783
sg71
g637
sg64
(lp784
g57
(g78
g59
NtRp785
(dp786
g62
(dp787
g82
g83
ssg71
g781
sg64
(lp788
g418
asbag57
(g78
g59
NtRp789
(dp790
g62
(dp791
g89
g90
ssg71
g781
sg64
(lp792
S':'
asbag57
(g78
g59
NtRp793
(dp794
g62
(dp795
sg71
g781
sg64
(lp796
g57
(g58
g59
NtRp797
(dp798
g62
(dp799
g70
I3
ssg71
g793
sg64
(lp800
S''
asbasbasbasbasbasbasbasbasbasbasbag57
(g73
g59
NtRp801
(dp802
g62
(dp803
sg71
g67
sg64
(lp804
g57
(g78
g59
NtRp805
(dp806
g62
(dp807
g82
g83
ssg71
g801
sg64
(lp808
S'env'
p809
asbag57
(g78
g59
NtRp810
(dp811
g62
(dp812
g89
g90
ssg71
g801
sg64
(lp813
S':'
asbag57
(g78
g59
NtRp814
(dp815
g62
(dp816
sg71
g801
sg64
(lp817
g57
(g58
g59
NtRp818
(dp819
g62
(dp820
g70
I5
ssg71
g814
sg64
(lp821
g57
(g66
g59
NtRp822
(dp823
g62
(dp824
g70
I4
ssg71
Nsg64
(lp825
g57
(g73
g59
NtRp826
(dp827
g62
(dp828
sg71
g822
sg64
(lp829
g57
(g78
g59
NtRp830
(dp831
g62
(dp832
g82
g83
ssg71
g826
sg64
(lp833
S'app_folders'
p834
asbag57
(g78
g59
NtRp835
(dp836
g62
(dp837
g89
g90
ssg71
g826
sg64
(lp838
S':'
asbag57
(g78
g59
NtRp839
(dp840
g62
(dp841
sg71
g826
sg64
(lp842
g57
(g58
g59
NtRp843
(dp844
g62
(dp845
g70
I4
ssg71
g839
sg64
(lp846
S"set(['/home/andromeda/work/graphing/web2py/applications/testtest/'])"
p847
asbasbasbag57
(g73
g59
NtRp848
(dp849
g62
(dp850
sg71
g822
sg64
(lp851
g57
(g78
g59
NtRp852
(dp853
g62
(dp854
g82
g83
ssg71
g848
sg64
(lp855
S'applications_parent'
p856
asbag57
(g78
g59
NtRp857
(dp858
g62
(dp859
g89
g90
ssg71
g848
sg64
(lp860
S':'
asbag57
(g78
g59
NtRp861
(dp862
g62
(dp863
sg71
g848
sg64
(lp864
g57
(g58
g59
NtRp865
(dp866
g62
(dp867
g70
I4
ssg71
g861
sg64
(lp868
S'/home/andromeda/work/graphing/web2py'
p869
asbasbasbag57
(g73
g59
NtRp870
(dp871
g62
(dp872
sg71
g822
sg64
(lp873
g57
(g78
g59
NtRp874
(dp875
g62
(dp876
g82
g83
ssg71
g870
sg64
(lp877
S'cmd_args'
p878
asbag57
(g78
g59
NtRp879
(dp880
g62
(dp881
g89
g90
ssg71
g870
sg64
(lp882
S':'
asbag57
(g78
g59
NtRp883
(dp884
g62
(dp885
sg71
g870
sg64
(lp886
g57
(g58
g59
NtRp887
(dp888
g62
(dp889
g70
I4
ssg71
g883
sg64
(lp890
g57
(g66
g59
NtRp891
(dp892
g62
(dp893
g70
I3
ssg71
Nsg64
(lp894
sbasbasbasbag57
(g73
g59
NtRp895
(dp896
g62
(dp897
sg71
g822
sg64
(lp898
g57
(g78
g59
NtRp899
(dp900
g62
(dp901
g82
g83
ssg71
g895
sg64
(lp902
S'cmd_options'
p903
asbag57
(g78
g59
NtRp904
(dp905
g62
(dp906
g89
g90
ssg71
g895
sg64
(lp907
S':'
asbag57
(g78
g59
NtRp908
(dp909
g62
(dp910
sg71
g895
sg64
(lp911
g57
(g58
g59
NtRp912
(dp913
g62
(dp914
g70
I4
ssg71
g908
sg64
(lp915
S"<Values at 0x1bb3758: {'verbose': False, 'ip': '127.0.0.1', 'shutdown_timeout': 5, 'taskbar': False, 'nocron': False, 'pid_filename': 'httpserver.pid', 'maxthreads': None, 'softcron': False, 'server_name': 'andromeda-desktop', 'bpython': False, 'nogui': False, 'port': 8000, 'extcron': False, 'debuglevel': 30, 'test': None, 'folder': '/home/andromeda/work/graphing/web2py', 'config': '', 'import_models': False, 'winservice': '', 'shell': None, 'run': '', 'log_filename': 'httpserver.log', 'args': [''], 'socket_timeout': 1, 'ssl_ca_certificate': None, 'scheduler': None, 'profiler_filename': None, 'ssl_private_key': '', 'password': 'cookie', 'request_queue_size': 5, 'ssl_certificate': '', 'cronjob': False, 'numthreads': None, 'quiet': False, 'interfaces': None, 'minthreads': None, 'timeout': 10, 'plain': False, 'nobanner': False}>"
p916
asbasbasbag57
(g73
g59
NtRp917
(dp918
g62
(dp919
sg71
g822
sg64
(lp920
g57
(g78
g59
NtRp921
(dp922
g62
(dp923
g82
g83
ssg71
g917
sg64
(lp924
S'db_sessions'
p925
asbag57
(g78
g59
NtRp926
(dp927
g62
(dp928
g89
g90
ssg71
g917
sg64
(lp929
S':'
asbag57
(g78
g59
NtRp930
(dp931
g62
(dp932
sg71
g917
sg64
(lp933
g57
(g58
g59
NtRp934
(dp935
g62
(dp936
g70
I4
ssg71
g930
sg64
(lp937
S'set([])'
p938
asbasbasbag57
(g73
g59
NtRp939
(dp940
g62
(dp941
sg71
g822
sg64
(lp942
g57
(g78
g59
NtRp943
(dp944
g62
(dp945
g82
g83
ssg71
g939
sg64
(lp946
S'debugging'
p947
asbag57
(g78
g59
NtRp948
(dp949
g62
(dp950
g89
g90
ssg71
g939
sg64
(lp951
S':'
asbag57
(g78
g59
NtRp952
(dp953
g62
(dp954
sg71
g939
sg64
(lp955
g57
(g58
g59
NtRp956
(dp957
g62
(dp958
g70
I4
ssg71
g952
sg64
(lp959
S'False'
p960
asbasbasbag57
(g73
g59
NtRp961
(dp962
g62
(dp963
sg71
g822
sg64
(lp964
g57
(g78
g59
NtRp965
(dp966
g62
(dp967
g82
g83
ssg71
g961
sg64
(lp968
S'gluon_parent'
p969
asbag57
(g78
g59
NtRp970
(dp971
g62
(dp972
g89
g90
ssg71
g961
sg64
(lp973
S':'
asbag57
(g78
g59
NtRp974
(dp975
g62
(dp976
sg71
g961
sg64
(lp977
g57
(g58
g59
NtRp978
(dp979
g62
(dp980
g70
I4
ssg71
g974
sg64
(lp981
S'/home/andromeda/work/graphing/web2py'
p982
asbasbasbag57
(g73
g59
NtRp983
(dp984
g62
(dp985
sg71
g822
sg64
(lp986
g57
(g78
g59
NtRp987
(dp988
g62
(dp989
g82
g83
ssg71
g983
sg64
(lp990
S'http_accept'
p991
asbag57
(g78
g59
NtRp992
(dp993
g62
(dp994
g89
g90
ssg71
g983
sg64
(lp995
S':'
asbag57
(g78
g59
NtRp996
(dp997
g62
(dp998
sg71
g983
sg64
(lp999
g57
(g58
g59
NtRp1000
(dp1001
g62
(dp1002
g70
I4
ssg71
g996
sg64
(lp1003
S'*/*'
p1004
asbasbasbag57
(g73
g59
NtRp1005
(dp1006
g62
(dp1007
sg71
g822
sg64
(lp1008
g57
(g78
g59
NtRp1009
(dp1010
g62
(dp1011
g82
g83
ssg71
g1005
sg64
(lp1012
S'http_accept_charset'
p1013
asbag57
(g78
g59
NtRp1014
(dp1015
g62
(dp1016
g89
g90
ssg71
g1005
sg64
(lp1017
S':'
asbag57
(g78
g59
NtRp1018
(dp1019
g62
(dp1020
sg71
g1005
sg64
(lp1021
g57
(g58
g59
NtRp1022
(dp1023
g62
(dp1024
g70
I4
ssg71
g1018
sg64
(lp1025
S'ISO-8859-1,utf-8;q=0.7,*;q=0.3'
p1026
asbasbasbag57
(g73
g59
NtRp1027
(dp1028
g62
(dp1029
sg71
g822
sg64
(lp1030
g57
(g78
g59
NtRp1031
(dp1032
g62
(dp1033
g82
g83
ssg71
g1027
sg64
(lp1034
S'http_accept_encoding'
p1035
asbag57
(g78
g59
NtRp1036
(dp1037
g62
(dp1038
g89
g90
ssg71
g1027
sg64
(lp1039
S':'
asbag57
(g78
g59
NtRp1040
(dp1041
g62
(dp1042
sg71
g1027
sg64
(lp1043
g57
(g58
g59
NtRp1044
(dp1045
g62
(dp1046
g70
I4
ssg71
g1040
sg64
(lp1047
S'gzip,deflate,sdch'
p1048
asbasbasbag57
(g73
g59
NtRp1049
(dp1050
g62
(dp1051
sg71
g822
sg64
(lp1052
g57
(g78
g59
NtRp1053
(dp1054
g62
(dp1055
g82
g83
ssg71
g1049
sg64
(lp1056
S'http_accept_language'
p1057
asbag57
(g78
g59
NtRp1058
(dp1059
g62
(dp1060
g89
g90
ssg71
g1049
sg64
(lp1061
S':'
asbag57
(g78
g59
NtRp1062
(dp1063
g62
(dp1064
sg71
g1049
sg64
(lp1065
g57
(g58
g59
NtRp1066
(dp1067
g62
(dp1068
g70
I4
ssg71
g1062
sg64
(lp1069
S'en-US,en;q=0.8'
p1070
asbasbasbag57
(g73
g59
NtRp1071
(dp1072
g62
(dp1073
sg71
g822
sg64
(lp1074
g57
(g78
g59
NtRp1075
(dp1076
g62
(dp1077
g82
g83
ssg71
g1071
sg64
(lp1078
S'http_connection'
p1079
asbag57
(g78
g59
NtRp1080
(dp1081
g62
(dp1082
g89
g90
ssg71
g1071
sg64
(lp1083
S':'
asbag57
(g78
g59
NtRp1084
(dp1085
g62
(dp1086
sg71
g1071
sg64
(lp1087
g57
(g58
g59
NtRp1088
(dp1089
g62
(dp1090
g70
I4
ssg71
g1084
sg64
(lp1091
S'keep-alive'
p1092
asbasbasbag57
(g73
g59
NtRp1093
(dp1094
g62
(dp1095
sg71
g822
sg64
(lp1096
g57
(g78
g59
NtRp1097
(dp1098
g62
(dp1099
g82
g83
ssg71
g1093
sg64
(lp1100
S'http_cookie'
p1101
asbag57
(g78
g59
NtRp1102
(dp1103
g62
(dp1104
g89
g90
ssg71
g1093
sg64
(lp1105
S':'
asbag57
(g78
g59
NtRp1106
(dp1107
g62
(dp1108
sg71
g1093
sg64
(lp1109
g57
(g58
g59
NtRp1110
(dp1111
g62
(dp1112
g70
I4
ssg71
g1106
sg64
(lp1113
S'session_id_welcome=127.0.0.1-8087dfde-bdcf-478d-b614-4def092a2942; session_id_admin=127.0.0.1-425e8444-a969-4d38-8153-c1a5b81e95e6; session_id_testtest=127.0.0.1-4ad632aa-8339-462d-96fe-1d877bdde192'
p1114
asbasbasbag57
(g73
g59
NtRp1115
(dp1116
g62
(dp1117
sg71
g822
sg64
(lp1118
g57
(g78
g59
NtRp1119
(dp1120
g62
(dp1121
g82
g83
ssg71
g1115
sg64
(lp1122
S'http_host'
p1123
asbag57
(g78
g59
NtRp1124
(dp1125
g62
(dp1126
g89
g90
ssg71
g1115
sg64
(lp1127
S':'
asbag57
(g78
g59
NtRp1128
(dp1129
g62
(dp1130
sg71
g1115
sg64
(lp1131
g57
(g58
g59
NtRp1132
(dp1133
g62
(dp1134
g70
I4
ssg71
g1128
sg64
(lp1135
S'127.0.0.1:8000'
p1136
asbasbasbag57
(g73
g59
NtRp1137
(dp1138
g62
(dp1139
sg71
g822
sg64
(lp1140
g57
(g78
g59
NtRp1141
(dp1142
g62
(dp1143
g82
g83
ssg71
g1137
sg64
(lp1144
S'http_referer'
p1145
asbag57
(g78
g59
NtRp1146
(dp1147
g62
(dp1148
g89
g90
ssg71
g1137
sg64
(lp1149
S':'
asbag57
(g78
g59
NtRp1150
(dp1151
g62
(dp1152
sg71
g1137
sg64
(lp1153
g57
(g58
g59
NtRp1154
(dp1155
g62
(dp1156
g70
I4
ssg71
g1150
sg64
(lp1157
S'http://127.0.0.1:8000/testtest/utils/index'
p1158
asbasbasbag57
(g73
g59
NtRp1159
(dp1160
g62
(dp1161
sg71
g822
sg64
(lp1162
g57
(g78
g59
NtRp1163
(dp1164
g62
(dp1165
g82
g83
ssg71
g1159
sg64
(lp1166
S'http_user_agent'
p1167
asbag57
(g78
g59
NtRp1168
(dp1169
g62
(dp1170
g89
g90
ssg71
g1159
sg64
(lp1171
S':'
asbag57
(g78
g59
NtRp1172
(dp1173
g62
(dp1174
sg71
g1159
sg64
(lp1175
g57
(g58
g59
NtRp1176
(dp1177
g62
(dp1178
g70
I4
ssg71
g1172
sg64
(lp1179
S'Mozilla/5.0 (X11; Linux x86_64) AppleWebKit/535.11 (KHTML, like Gecko) Chrome/17.0.963.56 Safari/535.11'
p1180
asbasbasbag57
(g73
g59
NtRp1181
(dp1182
g62
(dp1183
sg71
g822
sg64
(lp1184
g57
(g78
g59
NtRp1185
(dp1186
g62
(dp1187
g82
g83
ssg71
g1181
sg64
(lp1188
S'http_x_requested_with'
p1189
asbag57
(g78
g59
NtRp1190
(dp1191
g62
(dp1192
g89
g90
ssg71
g1181
sg64
(lp1193
S':'
asbag57
(g78
g59
NtRp1194
(dp1195
g62
(dp1196
sg71
g1181
sg64
(lp1197
g57
(g58
g59
NtRp1198
(dp1199
g62
(dp1200
g70
I4
ssg71
g1194
sg64
(lp1201
S'XMLHttpRequest'
p1202
asbasbasbag57
(g73
g59
NtRp1203
(dp1204
g62
(dp1205
sg71
g822
sg64
(lp1206
g57
(g78
g59
NtRp1207
(dp1208
g62
(dp1209
g82
g83
ssg71
g1203
sg64
(lp1210
S'is_jython'
p1211
asbag57
(g78
g59
NtRp1212
(dp1213
g62
(dp1214
g89
g90
ssg71
g1203
sg64
(lp1215
S':'
asbag57
(g78
g59
NtRp1216
(dp1217
g62
(dp1218
sg71
g1203
sg64
(lp1219
g57
(g58
g59
NtRp1220
(dp1221
g62
(dp1222
g70
I4
ssg71
g1216
sg64
(lp1223
g960
asbasbasbag57
(g73
g59
NtRp1224
(dp1225
g62
(dp1226
sg71
g822
sg64
(lp1227
g57
(g78
g59
NtRp1228
(dp1229
g62
(dp1230
g82
g83
ssg71
g1224
sg64
(lp1231
S'is_pypy'
p1232
asbag57
(g78
g59
NtRp1233
(dp1234
g62
(dp1235
g89
g90
ssg71
g1224
sg64
(lp1236
S':'
asbag57
(g78
g59
NtRp1237
(dp1238
g62
(dp1239
sg71
g1224
sg64
(lp1240
g57
(g58
g59
NtRp1241
(dp1242
g62
(dp1243
g70
I4
ssg71
g1237
sg64
(lp1244
g960
asbasbasbag57
(g73
g59
NtRp1245
(dp1246
g62
(dp1247
sg71
g822
sg64
(lp1248
g57
(g78
g59
NtRp1249
(dp1250
g62
(dp1251
g82
g83
ssg71
g1245
sg64
(lp1252
S'path_info'
p1253
asbag57
(g78
g59
NtRp1254
(dp1255
g62
(dp1256
g89
g90
ssg71
g1245
sg64
(lp1257
S':'
asbag57
(g78
g59
NtRp1258
(dp1259
g62
(dp1260
sg71
g1245
sg64
(lp1261
g57
(g58
g59
NtRp1262
(dp1263
g62
(dp1264
g70
I4
ssg71
g1258
sg64
(lp1265
S'/testtest/utils/api'
p1266
asbasbasbag57
(g73
g59
NtRp1267
(dp1268
g62
(dp1269
sg71
g822
sg64
(lp1270
g57
(g78
g59
NtRp1271
(dp1272
g62
(dp1273
g82
g83
ssg71
g1267
sg64
(lp1274
S'query_string'
p1275
asbag57
(g78
g59
NtRp1276
(dp1277
g62
(dp1278
g89
g90
ssg71
g1267
sg64
(lp1279
S':'
asbag57
(g78
g59
NtRp1280
(dp1281
g62
(dp1282
sg71
g1267
sg64
(lp1283
g57
(g58
g59
NtRp1284
(dp1285
g62
(dp1286
g70
I4
ssg71
g1280
sg64
(lp1287
S'type=get&name=EOI'
p1288
asbasbasbag57
(g73
g59
NtRp1289
(dp1290
g62
(dp1291
sg71
g822
sg64
(lp1292
g57
(g78
g59
NtRp1293
(dp1294
g62
(dp1295
g82
g83
ssg71
g1289
sg64
(lp1296
S'remote_addr'
p1297
asbag57
(g78
g59
NtRp1298
(dp1299
g62
(dp1300
g89
g90
ssg71
g1289
sg64
(lp1301
S':'
asbag57
(g78
g59
NtRp1302
(dp1303
g62
(dp1304
sg71
g1289
sg64
(lp1305
g57
(g58
g59
NtRp1306
(dp1307
g62
(dp1308
g70
I4
ssg71
g1302
sg64
(lp1309
g190
asbasbasbag57
(g73
g59
NtRp1310
(dp1311
g62
(dp1312
sg71
g822
sg64
(lp1313
g57
(g78
g59
NtRp1314
(dp1315
g62
(dp1316
g82
g83
ssg71
g1310
sg64
(lp1317
S'remote_port'
p1318
asbag57
(g78
g59
NtRp1319
(dp1320
g62
(dp1321
g89
g90
ssg71
g1310
sg64
(lp1322
S':'
asbag57
(g78
g59
NtRp1323
(dp1324
g62
(dp1325
sg71
g1310
sg64
(lp1326
g57
(g58
g59
NtRp1327
(dp1328
g62
(dp1329
g70
I4
ssg71
g1323
sg64
(lp1330
S'37962'
p1331
asbasbasbag57
(g73
g59
NtRp1332
(dp1333
g62
(dp1334
sg71
g822
sg64
(lp1335
g57
(g78
g59
NtRp1336
(dp1337
g62
(dp1338
g82
g83
ssg71
g1332
sg64
(lp1339
S'request_method'
p1340
asbag57
(g78
g59
NtRp1341
(dp1342
g62
(dp1343
g89
g90
ssg71
g1332
sg64
(lp1344
S':'
asbag57
(g78
g59
NtRp1345
(dp1346
g62
(dp1347
sg71
g1332
sg64
(lp1348
g57
(g58
g59
NtRp1349
(dp1350
g62
(dp1351
g70
I4
ssg71
g1345
sg64
(lp1352
S'GET'
p1353
asbasbasbag57
(g73
g59
NtRp1354
(dp1355
g62
(dp1356
sg71
g822
sg64
(lp1357
g57
(g78
g59
NtRp1358
(dp1359
g62
(dp1360
g82
g83
ssg71
g1354
sg64
(lp1361
S'script_name'
p1362
asbag57
(g78
g59
NtRp1363
(dp1364
g62
(dp1365
g89
g90
ssg71
g1354
sg64
(lp1366
S':'
asbag57
(g78
g59
NtRp1367
(dp1368
g62
(dp1369
sg71
g1354
sg64
(lp1370
g57
(g58
g59
NtRp1371
(dp1372
g62
(dp1373
g70
I4
ssg71
g1367
sg64
(lp1374
S''
asbasbasbag57
(g73
g59
NtRp1375
(dp1376
g62
(dp1377
sg71
g822
sg64
(lp1378
g57
(g78
g59
NtRp1379
(dp1380
g62
(dp1381
g82
g83
ssg71
g1375
sg64
(lp1382
S'server_name'
p1383
asbag57
(g78
g59
NtRp1384
(dp1385
g62
(dp1386
g89
g90
ssg71
g1375
sg64
(lp1387
S':'
asbag57
(g78
g59
NtRp1388
(dp1389
g62
(dp1390
sg71
g1375
sg64
(lp1391
g57
(g58
g59
NtRp1392
(dp1393
g62
(dp1394
g70
I4
ssg71
g1388
sg64
(lp1395
S'andromeda-desktop'
p1396
asbasbasbag57
(g73
g59
NtRp1397
(dp1398
g62
(dp1399
sg71
g822
sg64
(lp1400
g57
(g78
g59
NtRp1401
(dp1402
g62
(dp1403
g82
g83
ssg71
g1397
sg64
(lp1404
S'server_port'
p1405
asbag57
(g78
g59
NtRp1406
(dp1407
g62
(dp1408
g89
g90
ssg71
g1397
sg64
(lp1409
S':'
asbag57
(g78
g59
NtRp1410
(dp1411
g62
(dp1412
sg71
g1397
sg64
(lp1413
g57
(g58
g59
NtRp1414
(dp1415
g62
(dp1416
g70
I4
ssg71
g1410
sg64
(lp1417
S'8000'
p1418
asbasbasbag57
(g73
g59
NtRp1419
(dp1420
g62
(dp1421
sg71
g822
sg64
(lp1422
g57
(g78
g59
NtRp1423
(dp1424
g62
(dp1425
g82
g83
ssg71
g1419
sg64
(lp1426
S'server_protocol'
p1427
asbag57
(g78
g59
NtRp1428
(dp1429
g62
(dp1430
g89
g90
ssg71
g1419
sg64
(lp1431
S':'
asbag57
(g78
g59
NtRp1432
(dp1433
g62
(dp1434
sg71
g1419
sg64
(lp1435
g57
(g58
g59
NtRp1436
(dp1437
g62
(dp1438
g70
I4
ssg71
g1432
sg64
(lp1439
S'HTTP/1.1'
p1440
asbasbasbag57
(g73
g59
NtRp1441
(dp1442
g62
(dp1443
sg71
g822
sg64
(lp1444
g57
(g78
g59
NtRp1445
(dp1446
g62
(dp1447
g82
g83
ssg71
g1441
sg64
(lp1448
S'server_software'
p1449
asbag57
(g78
g59
NtRp1450
(dp1451
g62
(dp1452
g89
g90
ssg71
g1441
sg64
(lp1453
S':'
asbag57
(g78
g59
NtRp1454
(dp1455
g62
(dp1456
sg71
g1441
sg64
(lp1457
g57
(g58
g59
NtRp1458
(dp1459
g62
(dp1460
g70
I4
ssg71
g1454
sg64
(lp1461
S'Rocket 1.2.4'
p1462
asbasbasbag57
(g73
g59
NtRp1463
(dp1464
g62
(dp1465
sg71
g822
sg64
(lp1466
g57
(g78
g59
NtRp1467
(dp1468
g62
(dp1469
g82
g83
ssg71
g1463
sg64
(lp1470
S'web2py_crontype'
p1471
asbag57
(g78
g59
NtRp1472
(dp1473
g62
(dp1474
g89
g90
ssg71
g1463
sg64
(lp1475
S':'
asbag57
(g78
g59
NtRp1476
(dp1477
g62
(dp1478
sg71
g1463
sg64
(lp1479
g57
(g58
g59
NtRp1480
(dp1481
g62
(dp1482
g70
I4
ssg71
g1476
sg64
(lp1483
S'hard'
p1484
asbasbasbag57
(g73
g59
NtRp1485
(dp1486
g62
(dp1487
sg71
g822
sg64
(lp1488
g57
(g78
g59
NtRp1489
(dp1490
g62
(dp1491
g82
g83
ssg71
g1485
sg64
(lp1492
S'web2py_path'
p1493
asbag57
(g78
g59
NtRp1494
(dp1495
g62
(dp1496
g89
g90
ssg71
g1485
sg64
(lp1497
S':'
asbag57
(g78
g59
NtRp1498
(dp1499
g62
(dp1500
sg71
g1485
sg64
(lp1501
g57
(g58
g59
NtRp1502
(dp1503
g62
(dp1504
g70
I4
ssg71
g1498
sg64
(lp1505
g869
asbasbasbag57
(g73
g59
NtRp1506
(dp1507
g62
(dp1508
sg71
g822
sg64
(lp1509
g57
(g78
g59
NtRp1510
(dp1511
g62
(dp1512
g82
g83
ssg71
g1506
sg64
(lp1513
S'web2py_version'
p1514
asbag57
(g78
g59
NtRp1515
(dp1516
g62
(dp1517
g89
g90
ssg71
g1506
sg64
(lp1518
S':'
asbag57
(g78
g59
NtRp1519
(dp1520
g62
(dp1521
sg71
g1506
sg64
(lp1522
g57
(g58
g59
NtRp1523
(dp1524
g62
(dp1525
g70
I4
ssg71
g1519
sg64
(lp1526
g57
(g66
g59
NtRp1527
(dp1528
g62
(dp1529
g70
I3
ssg71
Nsg64
(lp1530
g57
(g73
g59
NtRp1531
(dp1532
g62
(dp1533
sg71
g1527
sg64
(lp1534
g57
(g78
g59
NtRp1535
(dp1536
g62
(dp1537
sg71
g1531
sg64
(lp1538
g57
(g58
g59
NtRp1539
(dp1540
g62
(dp1541
g70
I3
ssg71
g1535
sg64
(lp1542
S'1'
asbasbasbag57
(g73
g59
NtRp1543
(dp1544
g62
(dp1545
sg71
g1527
sg64
(lp1546
g57
(g78
g59
NtRp1547
(dp1548
g62
(dp1549
sg71
g1543
sg64
(lp1550
g57
(g58
g59
NtRp1551
(dp1552
g62
(dp1553
g70
I3
ssg71
g1547
sg64
(lp1554
S'99'
p1555
asbasbasbag57
(g73
g59
NtRp1556
(dp1557
g62
(dp1558
sg71
g1527
sg64
(lp1559
g57
(g78
g59
NtRp1560
(dp1561
g62
(dp1562
sg71
g1556
sg64
(lp1563
g57
(g58
g59
NtRp1564
(dp1565
g62
(dp1566
g70
I3
ssg71
g1560
sg64
(lp1567
S'4'
asbasbasbag57
(g73
g59
NtRp1568
(dp1569
g62
(dp1570
sg71
g1527
sg64
(lp1571
g57
(g78
g59
NtRp1572
(dp1573
g62
(dp1574
sg71
g1568
sg64
(lp1575
g57
(g58
g59
NtRp1576
(dp1577
g62
(dp1578
g70
I3
ssg71
g1572
sg64
(lp1579
S'datetime.datetime(2011, 12, 14, 14, 46, 14)'
p1580
asbasbasbag57
(g73
g59
NtRp1581
(dp1582
g62
(dp1583
sg71
g1527
sg64
(lp1584
g57
(g78
g59
NtRp1585
(dp1586
g62
(dp1587
sg71
g1581
sg64
(lp1588
g57
(g58
g59
NtRp1589
(dp1590
g62
(dp1591
g70
I3
ssg71
g1585
sg64
(lp1592
S'stable'
p1593
asbasbasbasbasbasbasbag57
(g73
g59
NtRp1594
(dp1595
g62
(dp1596
sg71
g822
sg64
(lp1597
g57
(g78
g59
NtRp1598
(dp1599
g62
(dp1600
g82
g83
ssg71
g1594
sg64
(lp1601
S'wsgi_errors'
p1602
asbag57
(g78
g59
NtRp1603
(dp1604
g62
(dp1605
g89
g90
ssg71
g1594
sg64
(lp1606
S':'
asbag57
(g78
g59
NtRp1607
(dp1608
g62
(dp1609
sg71
g1594
sg64
(lp1610
g57
(g58
g59
NtRp1611
(dp1612
g62
(dp1613
g70
I4
ssg71
g1607
sg64
(lp1614
S"<open file '<stderr>', mode 'w' at 0x7f675bf8a1e0>"
p1615
asbasbasbag57
(g73
g59
NtRp1616
(dp1617
g62
(dp1618
sg71
g822
sg64
(lp1619
g57
(g78
g59
NtRp1620
(dp1621
g62
(dp1622
g82
g83
ssg71
g1616
sg64
(lp1623
S'wsgi_file_wrapper'
p1624
asbag57
(g78
g59
NtRp1625
(dp1626
g62
(dp1627
g89
g90
ssg71
g1616
sg64
(lp1628
S':'
asbag57
(g78
g59
NtRp1629
(dp1630
g62
(dp1631
sg71
g1616
sg64
(lp1632
g57
(g58
g59
NtRp1633
(dp1634
g62
(dp1635
g70
I4
ssg71
g1629
sg64
(lp1636
S'<class wsgiref.util.FileWrapper at 0x1b194d0>'
p1637
asbasbasbag57
(g73
g59
NtRp1638
(dp1639
g62
(dp1640
sg71
g822
sg64
(lp1641
g57
(g78
g59
NtRp1642
(dp1643
g62
(dp1644
g82
g83
ssg71
g1638
sg64
(lp1645
S'wsgi_input'
p1646
asbag57
(g78
g59
NtRp1647
(dp1648
g62
(dp1649
g89
g90
ssg71
g1638
sg64
(lp1650
S':'
asbag57
(g78
g59
NtRp1651
(dp1652
g62
(dp1653
sg71
g1638
sg64
(lp1654
g57
(g58
g59
NtRp1655
(dp1656
g62
(dp1657
g70
I4
ssg71
g1651
sg64
(lp1658
S'<socket._fileobject object at 0x229bcd0>'
p1659
asbasbasbag57
(g73
g59
NtRp1660
(dp1661
g62
(dp1662
sg71
g822
sg64
(lp1663
g57
(g78
g59
NtRp1664
(dp1665
g62
(dp1666
g82
g83
ssg71
g1660
sg64
(lp1667
S'wsgi_multiprocess'
p1668
asbag57
(g78
g59
NtRp1669
(dp1670
g62
(dp1671
g89
g90
ssg71
g1660
sg64
(lp1672
S':'
asbag57
(g78
g59
NtRp1673
(dp1674
g62
(dp1675
sg71
g1660
sg64
(lp1676
g57
(g58
g59
NtRp1677
(dp1678
g62
(dp1679
g70
I4
ssg71
g1673
sg64
(lp1680
g960
asbasbasbag57
(g73
g59
NtRp1681
(dp1682
g62
(dp1683
sg71
g822
sg64
(lp1684
g57
(g78
g59
NtRp1685
(dp1686
g62
(dp1687
g82
g83
ssg71
g1681
sg64
(lp1688
S'wsgi_multithread'
p1689
asbag57
(g78
g59
NtRp1690
(dp1691
g62
(dp1692
g89
g90
ssg71
g1681
sg64
(lp1693
S':'
asbag57
(g78
g59
NtRp1694
(dp1695
g62
(dp1696
sg71
g1681
sg64
(lp1697
g57
(g58
g59
NtRp1698
(dp1699
g62
(dp1700
g70
I4
ssg71
g1694
sg64
(lp1701
g100
asbasbasbag57
(g73
g59
NtRp1702
(dp1703
g62
(dp1704
sg71
g822
sg64
(lp1705
g57
(g78
g59
NtRp1706
(dp1707
g62
(dp1708
g82
g83
ssg71
g1702
sg64
(lp1709
S'wsgi_run_once'
p1710
asbag57
(g78
g59
NtRp1711
(dp1712
g62
(dp1713
g89
g90
ssg71
g1702
sg64
(lp1714
S':'
asbag57
(g78
g59
NtRp1715
(dp1716
g62
(dp1717
sg71
g1702
sg64
(lp1718
g57
(g58
g59
NtRp1719
(dp1720
g62
(dp1721
g70
I4
ssg71
g1715
sg64
(lp1722
g960
asbasbasbag57
(g73
g59
NtRp1723
(dp1724
g62
(dp1725
sg71
g822
sg64
(lp1726
g57
(g78
g59
NtRp1727
(dp1728
g62
(dp1729
g82
g83
ssg71
g1723
sg64
(lp1730
S'wsgi_url_scheme'
p1731
asbag57
(g78
g59
NtRp1732
(dp1733
g62
(dp1734
g89
g90
ssg71
g1723
sg64
(lp1735
S':'
asbag57
(g78
g59
NtRp1736
(dp1737
g62
(dp1738
sg71
g1723
sg64
(lp1739
g57
(g58
g59
NtRp1740
(dp1741
g62
(dp1742
g70
I4
ssg71
g1736
sg64
(lp1743
S'http'
p1744
asbasbasbag57
(g73
g59
NtRp1745
(dp1746
g62
(dp1747
sg71
g822
sg64
(lp1748
g57
(g78
g59
NtRp1749
(dp1750
g62
(dp1751
g82
g83
ssg71
g1745
sg64
(lp1752
S'wsgi_version'
p1753
asbag57
(g78
g59
NtRp1754
(dp1755
g62
(dp1756
g89
g90
ssg71
g1745
sg64
(lp1757
S':'
asbag57
(g78
g59
NtRp1758
(dp1759
g62
(dp1760
sg71
g1745
sg64
(lp1761
g57
(g58
g59
NtRp1762
(dp1763
g62
(dp1764
g70
I4
ssg71
g1758
sg64
(lp1765
g57
(g66
g59
NtRp1766
(dp1767
g62
(dp1768
g70
I3
ssg71
Nsg64
(lp1769
g57
(g73
g59
NtRp1770
(dp1771
g62
(dp1772
sg71
g1766
sg64
(lp1773
g57
(g78
g59
NtRp1774
(dp1775
g62
(dp1776
sg71
g1770
sg64
(lp1777
g57
(g58
g59
NtRp1778
(dp1779
g62
(dp1780
g70
I3
ssg71
g1774
sg64
(lp1781
S'1'
asbasbasbag57
(g73
g59
NtRp1782
(dp1783
g62
(dp1784
sg71
g1766
sg64
(lp1785
g57
(g78
g59
NtRp1786
(dp1787
g62
(dp1788
sg71
g1782
sg64
(lp1789
g57
(g58
g59
NtRp1790
(dp1791
g62
(dp1792
g70
I3
ssg71
g1786
sg64
(lp1793
S'0'
asbasbasbasbasbasbasbasbasbasbasbag57
(g73
g59
NtRp1794
(dp1795
g62
(dp1796
sg71
g67
sg64
(lp1797
g57
(g78
g59
NtRp1798
(dp1799
g62
(dp1800
g82
g83
ssg71
g1794
sg64
(lp1801
S'extension'
p1802
asbag57
(g78
g59
NtRp1803
(dp1804
g62
(dp1805
g89
g90
ssg71
g1794
sg64
(lp1806
S':'
asbag57
(g78
g59
NtRp1807
(dp1808
g62
(dp1809
sg71
g1794
sg64
(lp1810
g57
(g58
g59
NtRp1811
(dp1812
g62
(dp1813
g70
I5
ssg71
g1807
sg64
(lp1814
S'html'
p1815
asbasbasbag57
(g73
g59
NtRp1816
(dp1817
g62
(dp1818
sg71
g67
sg64
(lp1819
g57
(g78
g59
NtRp1820
(dp1821
g62
(dp1822
g82
g83
ssg71
g1816
sg64
(lp1823
S'folder'
p1824
asbag57
(g78
g59
NtRp1825
(dp1826
g62
(dp1827
g89
g90
ssg71
g1816
sg64
(lp1828
S':'
asbag57
(g78
g59
NtRp1829
(dp1830
g62
(dp1831
sg71
g1816
sg64
(lp1832
g57
(g58
g59
NtRp1833
(dp1834
g62
(dp1835
g70
I5
ssg71
g1829
sg64
(lp1836
S'/home/andromeda/work/graphing/web2py/applications/testtest/'
p1837
asbasbasbag57
(g73
g59
NtRp1838
(dp1839
g62
(dp1840
sg71
g67
sg64
(lp1841
g57
(g78
g59
NtRp1842
(dp1843
g62
(dp1844
g82
g83
ssg71
g1838
sg64
(lp1845
S'function'
p1846
asbag57
(g78
g59
NtRp1847
(dp1848
g62
(dp1849
g89
g90
ssg71
g1838
sg64
(lp1850
S':'
asbag57
(g78
g59
NtRp1851
(dp1852
g62
(dp1853
sg71
g1838
sg64
(lp1854
g57
(g58
g59
NtRp1855
(dp1856
g62
(dp1857
g70
I5
ssg71
g1851
sg64
(lp1858
S'api'
p1859
asbasbasbag57
(g73
g59
NtRp1860
(dp1861
g62
(dp1862
sg71
g67
sg64
(lp1863
g57
(g78
g59
NtRp1864
(dp1865
g62
(dp1866
g82
g83
ssg71
g1860
sg64
(lp1867
S'get_vars'
p1868
asbag57
(g78
g59
NtRp1869
(dp1870
g62
(dp1871
g89
g90
ssg71
g1860
sg64
(lp1872
S':'
asbag57
(g78
g59
NtRp1873
(dp1874
g62
(dp1875
sg71
g1860
sg64
(lp1876
g57
(g58
g59
NtRp1877
(dp1878
g62
(dp1879
g70
I5
ssg71
g1873
sg64
(lp1880
g57
(g66
g59
NtRp1881
(dp1882
g62
(dp1883
g70
I4
ssg71
Nsg64
(lp1884
g57
(g73
g59
NtRp1885
(dp1886
g62
(dp1887
sg71
g1881
sg64
(lp1888
g57
(g78
g59
NtRp1889
(dp1890
g62
(dp1891
g82
g83
ssg71
g1885
sg64
(lp1892
S'name'
p1893
asbag57
(g78
g59
NtRp1894
(dp1895
g62
(dp1896
g89
g90
ssg71
g1885
sg64
(lp1897
S':'
asbag57
(g78
g59
NtRp1898
(dp1899
g62
(dp1900
sg71
g1885
sg64
(lp1901
g57
(g58
g59
NtRp1902
(dp1903
g62
(dp1904
g70
I4
ssg71
g1898
sg64
(lp1905
S'EOI'
p1906
asbasbasbag57
(g73
g59
NtRp1907
(dp1908
g62
(dp1909
sg71
g1881
sg64
(lp1910
g57
(g78
g59
NtRp1911
(dp1912
g62
(dp1913
g82
g83
ssg71
g1907
sg64
(lp1914
S'type'
p1915
asbag57
(g78
g59
NtRp1916
(dp1917
g62
(dp1918
g89
g90
ssg71
g1907
sg64
(lp1919
S':'
asbag57
(g78
g59
NtRp1920
(dp1921
g62
(dp1922
sg71
g1907
sg64
(lp1923
g57
(g58
g59
NtRp1924
(dp1925
g62
(dp1926
g70
I4
ssg71
g1920
sg64
(lp1927
S'get'
p1928
asbasbasbasbasbasbasbag57
(g73
g59
NtRp1929
(dp1930
g62
(dp1931
sg71
g67
sg64
(lp1932
g57
(g78
g59
NtRp1933
(dp1934
g62
(dp1935
g82
g83
ssg71
g1929
sg64
(lp1936
S'global_settings'
p1937
asbag57
(g78
g59
NtRp1938
(dp1939
g62
(dp1940
g89
g90
ssg71
g1929
sg64
(lp1941
S':'
asbag57
(g78
g59
NtRp1942
(dp1943
g62
(dp1944
sg71
g1929
sg64
(lp1945
g57
(g58
g59
NtRp1946
(dp1947
g62
(dp1948
g70
I5
ssg71
g1942
sg64
(lp1949
g57
(g66
g59
NtRp1950
(dp1951
g62
(dp1952
g70
I4
ssg71
Nsg64
(lp1953
g57
(g73
g59
NtRp1954
(dp1955
g62
(dp1956
sg71
g1950
sg64
(lp1957
g57
(g78
g59
NtRp1958
(dp1959
g62
(dp1960
g82
g83
ssg71
g1954
sg64
(lp1961
g834
asbag57
(g78
g59
NtRp1962
(dp1963
g62
(dp1964
g89
g90
ssg71
g1954
sg64
(lp1965
S':'
asbag57
(g78
g59
NtRp1966
(dp1967
g62
(dp1968
sg71
g1954
sg64
(lp1969
g57
(g58
g59
NtRp1970
(dp1971
g62
(dp1972
g70
I4
ssg71
g1966
sg64
(lp1973
S"set(['/home/andromeda/work/graphing/web2py/applications/testtest/'])"
p1974
asbasbasbag57
(g73
g59
NtRp1975
(dp1976
g62
(dp1977
sg71
g1950
sg64
(lp1978
g57
(g78
g59
NtRp1979
(dp1980
g62
(dp1981
g82
g83
ssg71
g1975
sg64
(lp1982
g856
asbag57
(g78
g59
NtRp1983
(dp1984
g62
(dp1985
g89
g90
ssg71
g1975
sg64
(lp1986
S':'
asbag57
(g78
g59
NtRp1987
(dp1988
g62
(dp1989
sg71
g1975
sg64
(lp1990
g57
(g58
g59
NtRp1991
(dp1992
g62
(dp1993
g70
I4
ssg71
g1987
sg64
(lp1994
g869
asbasbasbag57
(g73
g59
NtRp1995
(dp1996
g62
(dp1997
sg71
g1950
sg64
(lp1998
g57
(g78
g59
NtRp1999
(dp2000
g62
(dp2001
g82
g83
ssg71
g1995
sg64
(lp2002
g878
asbag57
(g78
g59
NtRp2003
(dp2004
g62
(dp2005
g89
g90
ssg71
g1995
sg64
(lp2006
S':'
asbag57
(g78
g59
NtRp2007
(dp2008
g62
(dp2009
sg71
g1995
sg64
(lp2010
g57
(g58
g59
NtRp2011
(dp2012
g62
(dp2013
g70
I4
ssg71
g2007
sg64
(lp2014
g57
(g66
g59
NtRp2015
(dp2016
g62
(dp2017
g70
I3
ssg71
Nsg64
(lp2018
sbasbasbasbag57
(g73
g59
NtRp2019
(dp2020
g62
(dp2021
sg71
g1950
sg64
(lp2022
g57
(g78
g59
NtRp2023
(dp2024
g62
(dp2025
g82
g83
ssg71
g2019
sg64
(lp2026
g903
asbag57
(g78
g59
NtRp2027
(dp2028
g62
(dp2029
g89
g90
ssg71
g2019
sg64
(lp2030
S':'
asbag57
(g78
g59
NtRp2031
(dp2032
g62
(dp2033
sg71
g2019
sg64
(lp2034
g57
(g58
g59
NtRp2035
(dp2036
g62
(dp2037
g70
I4
ssg71
g2031
sg64
(lp2038
S"<Values at 0x1bb3758: {'verbose': False, 'ip': '127.0.0.1', 'shutdown_timeout': 5, 'taskbar': False, 'nocron': False, 'pid_filename': 'httpserver.pid', 'maxthreads': None, 'softcron': False, 'server_name': 'andromeda-desktop', 'bpython': False, 'nogui': False, 'port': 8000, 'extcron': False, 'debuglevel': 30, 'test': None, 'folder': '/home/andromeda/work/graphing/web2py', 'config': '', 'import_models': False, 'winservice': '', 'shell': None, 'run': '', 'log_filename': 'httpserver.log', 'args': [''], 'socket_timeout': 1, 'ssl_ca_certificate': None, 'scheduler': None, 'profiler_filename': None, 'ssl_private_key': '', 'password': 'cookie', 'request_queue_size': 5, 'ssl_certificate': '', 'cronjob': False, 'numthreads': None, 'quiet': False, 'interfaces': None, 'minthreads': None, 'timeout': 10, 'plain': False, 'nobanner': False}>"
p2039
asbasbasbag57
(g73
g59
NtRp2040
(dp2041
g62
(dp2042
sg71
g1950
sg64
(lp2043
g57
(g78
g59
NtRp2044
(dp2045
g62
(dp2046
g82
g83
ssg71
g2040
sg64
(lp2047
g925
asbag57
(g78
g59
NtRp2048
(dp2049
g62
(dp2050
g89
g90
ssg71
g2040
sg64
(lp2051
S':'
asbag57
(g78
g59
NtRp2052
(dp2053
g62
(dp2054
sg71
g2040
sg64
(lp2055
g57
(g58
g59
NtRp2056
(dp2057
g62
(dp2058
g70
I4
ssg71
g2052
sg64
(lp2059
S'set([])'
p2060
asbasbasbag57
(g73
g59
NtRp2061
(dp2062
g62
(dp2063
sg71
g1950
sg64
(lp2064
g57
(g78
g59
NtRp2065
(dp2066
g62
(dp2067
g82
g83
ssg71
g2061
sg64
(lp2068
g947
asbag57
(g78
g59
NtRp2069
(dp2070
g62
(dp2071
g89
g90
ssg71
g2061
sg64
(lp2072
S':'
asbag57
(g78
g59
NtRp2073
(dp2074
g62
(dp2075
sg71
g2061
sg64
(lp2076
g57
(g58
g59
NtRp2077
(dp2078
g62
(dp2079
g70
I4
ssg71
g2073
sg64
(lp2080
g960
asbasbasbag57
(g73
g59
NtRp2081
(dp2082
g62
(dp2083
sg71
g1950
sg64
(lp2084
g57
(g78
g59
NtRp2085
(dp2086
g62
(dp2087
g82
g83
ssg71
g2081
sg64
(lp2088
g969
asbag57
(g78
g59
NtRp2089
(dp2090
g62
(dp2091
g89
g90
ssg71
g2081
sg64
(lp2092
S':'
asbag57
(g78
g59
NtRp2093
(dp2094
g62
(dp2095
sg71
g2081
sg64
(lp2096
g57
(g58
g59
NtRp2097
(dp2098
g62
(dp2099
g70
I4
ssg71
g2093
sg64
(lp2100
g982
asbasbasbag57
(g73
g59
NtRp2101
(dp2102
g62
(dp2103
sg71
g1950
sg64
(lp2104
g57
(g78
g59
NtRp2105
(dp2106
g62
(dp2107
g82
g83
ssg71
g2101
sg64
(lp2108
g1211
asbag57
(g78
g59
NtRp2109
(dp2110
g62
(dp2111
g89
g90
ssg71
g2101
sg64
(lp2112
S':'
asbag57
(g78
g59
NtRp2113
(dp2114
g62
(dp2115
sg71
g2101
sg64
(lp2116
g57
(g58
g59
NtRp2117
(dp2118
g62
(dp2119
g70
I4
ssg71
g2113
sg64
(lp2120
g960
asbasbasbag57
(g73
g59
NtRp2121
(dp2122
g62
(dp2123
sg71
g1950
sg64
(lp2124
g57
(g78
g59
NtRp2125
(dp2126
g62
(dp2127
g82
g83
ssg71
g2121
sg64
(lp2128
g1232
asbag57
(g78
g59
NtRp2129
(dp2130
g62
(dp2131
g89
g90
ssg71
g2121
sg64
(lp2132
S':'
asbag57
(g78
g59
NtRp2133
(dp2134
g62
(dp2135
sg71
g2121
sg64
(lp2136
g57
(g58
g59
NtRp2137
(dp2138
g62
(dp2139
g70
I4
ssg71
g2133
sg64
(lp2140
g960
asbasbasbag57
(g73
g59
NtRp2141
(dp2142
g62
(dp2143
sg71
g1950
sg64
(lp2144
g57
(g78
g59
NtRp2145
(dp2146
g62
(dp2147
g82
g83
ssg71
g2141
sg64
(lp2148
g1471
asbag57
(g78
g59
NtRp2149
(dp2150
g62
(dp2151
g89
g90
ssg71
g2141
sg64
(lp2152
S':'
asbag57
(g78
g59
NtRp2153
(dp2154
g62
(dp2155
sg71
g2141
sg64
(lp2156
g57
(g58
g59
NtRp2157
(dp2158
g62
(dp2159
g70
I4
ssg71
g2153
sg64
(lp2160
g1484
asbasbasbag57
(g73
g59
NtRp2161
(dp2162
g62
(dp2163
sg71
g1950
sg64
(lp2164
g57
(g78
g59
NtRp2165
(dp2166
g62
(dp2167
g82
g83
ssg71
g2161
sg64
(lp2168
g1514
asbag57
(g78
g59
NtRp2169
(dp2170
g62
(dp2171
g89
g90
ssg71
g2161
sg64
(lp2172
S':'
asbag57
(g78
g59
NtRp2173
(dp2174
g62
(dp2175
sg71
g2161
sg64
(lp2176
g57
(g58
g59
NtRp2177
(dp2178
g62
(dp2179
g70
I4
ssg71
g2173
sg64
(lp2180
g57
(g66
g59
NtRp2181
(dp2182
g62
(dp2183
g70
I3
ssg71
Nsg64
(lp2184
g57
(g73
g59
NtRp2185
(dp2186
g62
(dp2187
sg71
g2181
sg64
(lp2188
g57
(g78
g59
NtRp2189
(dp2190
g62
(dp2191
sg71
g2185
sg64
(lp2192
g57
(g58
g59
NtRp2193
(dp2194
g62
(dp2195
g70
I3
ssg71
g2189
sg64
(lp2196
S'1'
asbasbasbag57
(g73
g59
NtRp2197
(dp2198
g62
(dp2199
sg71
g2181
sg64
(lp2200
g57
(g78
g59
NtRp2201
(dp2202
g62
(dp2203
sg71
g2197
sg64
(lp2204
g57
(g58
g59
NtRp2205
(dp2206
g62
(dp2207
g70
I3
ssg71
g2201
sg64
(lp2208
S'99'
p2209
asbasbasbag57
(g73
g59
NtRp2210
(dp2211
g62
(dp2212
sg71
g2181
sg64
(lp2213
g57
(g78
g59
NtRp2214
(dp2215
g62
(dp2216
sg71
g2210
sg64
(lp2217
g57
(g58
g59
NtRp2218
(dp2219
g62
(dp2220
g70
I3
ssg71
g2214
sg64
(lp2221
S'4'
asbasbasbag57
(g73
g59
NtRp2222
(dp2223
g62
(dp2224
sg71
g2181
sg64
(lp2225
g57
(g78
g59
NtRp2226
(dp2227
g62
(dp2228
sg71
g2222
sg64
(lp2229
g57
(g58
g59
NtRp2230
(dp2231
g62
(dp2232
g70
I3
ssg71
g2226
sg64
(lp2233
S'datetime.datetime(2011, 12, 14, 14, 46, 14)'
p2234
asbasbasbag57
(g73
g59
NtRp2235
(dp2236
g62
(dp2237
sg71
g2181
sg64
(lp2238
g57
(g78
g59
NtRp2239
(dp2240
g62
(dp2241
sg71
g2235
sg64
(lp2242
g57
(g58
g59
NtRp2243
(dp2244
g62
(dp2245
g70
I3
ssg71
g2239
sg64
(lp2246
g1593
asbasbasbasbasbasbasbasbasbasbasbag57
(g73
g59
NtRp2247
(dp2248
g62
(dp2249
sg71
g67
sg64
(lp2250
g57
(g78
g59
NtRp2251
(dp2252
g62
(dp2253
g82
g83
ssg71
g2247
sg64
(lp2254
S'is_https'
p2255
asbag57
(g78
g59
NtRp2256
(dp2257
g62
(dp2258
g89
g90
ssg71
g2247
sg64
(lp2259
S':'
asbag57
(g78
g59
NtRp2260
(dp2261
g62
(dp2262
sg71
g2247
sg64
(lp2263
g57
(g58
g59
NtRp2264
(dp2265
g62
(dp2266
g70
I5
ssg71
g2260
sg64
(lp2267
g960
asbasbasbag57
(g73
g59
NtRp2268
(dp2269
g62
(dp2270
sg71
g67
sg64
(lp2271
g57
(g78
g59
NtRp2272
(dp2273
g62
(dp2274
g82
g83
ssg71
g2268
sg64
(lp2275
S'is_local'
p2276
asbag57
(g78
g59
NtRp2277
(dp2278
g62
(dp2279
g89
g90
ssg71
g2268
sg64
(lp2280
S':'
asbag57
(g78
g59
NtRp2281
(dp2282
g62
(dp2283
sg71
g2268
sg64
(lp2284
g57
(g58
g59
NtRp2285
(dp2286
g62
(dp2287
g70
I5
ssg71
g2281
sg64
(lp2288
g100
asbasbasbag57
(g73
g59
NtRp2289
(dp2290
g62
(dp2291
sg71
g67
sg64
(lp2292
g57
(g78
g59
NtRp2293
(dp2294
g62
(dp2295
g82
g83
ssg71
g2289
sg64
(lp2296
S'is_restful'
p2297
asbag57
(g78
g59
NtRp2298
(dp2299
g62
(dp2300
g89
g90
ssg71
g2289
sg64
(lp2301
S':'
asbag57
(g78
g59
NtRp2302
(dp2303
g62
(dp2304
sg71
g2289
sg64
(lp2305
g57
(g58
g59
NtRp2306
(dp2307
g62
(dp2308
g70
I5
ssg71
g2302
sg64
(lp2309
g960
asbasbasbag57
(g73
g59
NtRp2310
(dp2311
g62
(dp2312
sg71
g67
sg64
(lp2313
g57
(g78
g59
NtRp2314
(dp2315
g62
(dp2316
g82
g83
ssg71
g2310
sg64
(lp2317
S'now'
p2318
asbag57
(g78
g59
NtRp2319
(dp2320
g62
(dp2321
g89
g90
ssg71
g2310
sg64
(lp2322
S':'
asbag57
(g78
g59
NtRp2323
(dp2324
g62
(dp2325
sg71
g2310
sg64
(lp2326
g57
(g58
g59
NtRp2327
(dp2328
g62
(dp2329
g70
I5
ssg71
g2323
sg64
(lp2330
S'datetime.datetime(2012, 2, 25, 21, 24, 54, 557477)'
p2331
asbasbasbag57
(g73
g59
NtRp2332
(dp2333
g62
(dp2334
sg71
g67
sg64
(lp2335
g57
(g78
g59
NtRp2336
(dp2337
g62
(dp2338
g82
g83
ssg71
g2332
sg64
(lp2339
S'post_vars'
p2340
asbag57
(g78
g59
NtRp2341
(dp2342
g62
(dp2343
g89
g90
ssg71
g2332
sg64
(lp2344
S':'
asbag57
(g78
g59
NtRp2345
(dp2346
g62
(dp2347
sg71
g2332
sg64
(lp2348
g57
(g58
g59
NtRp2349
(dp2350
g62
(dp2351
g70
I5
ssg71
g2345
sg64
(lp2352
g57
(g66
g59
NtRp2353
(dp2354
g62
(dp2355
g70
I4
ssg71
Nsg64
(lp2356
sbasbasbasbag57
(g73
g59
NtRp2357
(dp2358
g62
(dp2359
sg71
g67
sg64
(lp2360
g57
(g78
g59
NtRp2361
(dp2362
g62
(dp2363
g82
g83
ssg71
g2357
sg64
(lp2364
S'url'
p2365
asbag57
(g78
g59
NtRp2366
(dp2367
g62
(dp2368
g89
g90
ssg71
g2357
sg64
(lp2369
S':'
asbag57
(g78
g59
NtRp2370
(dp2371
g62
(dp2372
sg71
g2357
sg64
(lp2373
g57
(g58
g59
NtRp2374
(dp2375
g62
(dp2376
g70
I5
ssg71
g2370
sg64
(lp2377
S'/testtest/utils/api'
p2378
asbasbasbag57
(g73
g59
NtRp2379
(dp2380
g62
(dp2381
sg71
g67
sg64
(lp2382
g57
(g78
g59
NtRp2383
(dp2384
g62
(dp2385
g82
g83
ssg71
g2379
sg64
(lp2386
S'utcnow'
p2387
asbag57
(g78
g59
NtRp2388
(dp2389
g62
(dp2390
g89
g90
ssg71
g2379
sg64
(lp2391
S':'
asbag57
(g78
g59
NtRp2392
(dp2393
g62
(dp2394
sg71
g2379
sg64
(lp2395
g57
(g58
g59
NtRp2396
(dp2397
g62
(dp2398
g70
I5
ssg71
g2392
sg64
(lp2399
S'datetime.datetime(2012, 2, 25, 15, 54, 54, 557513)'
p2400
asbasbasbag57
(g73
g59
NtRp2401
(dp2402
g62
(dp2403
sg71
g67
sg64
(lp2404
g57
(g78
g59
NtRp2405
(dp2406
g62
(dp2407
g82
g83
ssg71
g2401
sg64
(lp2408
S'uuid'
p2409
asbag57
(g78
g59
NtRp2410
(dp2411
g62
(dp2412
g89
g90
ssg71
g2401
sg64
(lp2413
S':'
asbag57
(g78
g59
NtRp2414
(dp2415
g62
(dp2416
sg71
g2401
sg64
(lp2417
g57
(g58
g59
NtRp2418
(dp2419
g62
(dp2420
g70
I5
ssg71
g2414
sg64
(lp2421
S'testtest/127.0.0.1.2012-02-25.21-24-54.b2aa70a2-91ce-411b-865d-cb54b71574fc'
p2422
asbasbasbag57
(g73
g59
NtRp2423
(dp2424
g62
(dp2425
sg71
g67
sg64
(lp2426
g57
(g78
g59
NtRp2427
(dp2428
g62
(dp2429
g82
g83
ssg71
g2423
sg64
(lp2430
S'vars'
p2431
asbag57
(g78
g59
NtRp2432
(dp2433
g62
(dp2434
g89
g90
ssg71
g2423
sg64
(lp2435
S':'
asbag57
(g78
g59
NtRp2436
(dp2437
g62
(dp2438
sg71
g2423
sg64
(lp2439
g57
(g58
g59
NtRp2440
(dp2441
g62
(dp2442
g70
I5
ssg71
g2436
sg64
(lp2443
g57
(g66
g59
NtRp2444
(dp2445
g62
(dp2446
g70
I4
ssg71
Nsg64
(lp2447
g57
(g73
g59
NtRp2448
(dp2449
g62
(dp2450
sg71
g2444
sg64
(lp2451
g57
(g78
g59
NtRp2452
(dp2453
g62
(dp2454
g82
g83
ssg71
g2448
sg64
(lp2455
g1893
asbag57
(g78
g59
NtRp2456
(dp2457
g62
(dp2458
g89
g90
ssg71
g2448
sg64
(lp2459
S':'
asbag57
(g78
g59
NtRp2460
(dp2461
g62
(dp2462
sg71
g2448
sg64
(lp2463
g57
(g58
g59
NtRp2464
(dp2465
g62
(dp2466
g70
I4
ssg71
g2460
sg64
(lp2467
g1906
asbasbasbag57
(g73
g59
NtRp2468
(dp2469
g62
(dp2470
sg71
g2444
sg64
(lp2471
g57
(g78
g59
NtRp2472
(dp2473
g62
(dp2474
g82
g83
ssg71
g2468
sg64
(lp2475
g1915
asbag57
(g78
g59
NtRp2476
(dp2477
g62
(dp2478
g89
g90
ssg71
g2468
sg64
(lp2479
S':'
asbag57
(g78
g59
NtRp2480
(dp2481
g62
(dp2482
sg71
g2468
sg64
(lp2483
g57
(g58
g59
NtRp2484
(dp2485
g62
(dp2486
g70
I4
ssg71
g2480
sg64
(lp2487
g1928
asbasbasbasbasbasbasbag57
(g73
g59
NtRp2488
(dp2489
g62
(dp2490
sg71
g67
sg64
(lp2491
g57
(g78
g59
NtRp2492
(dp2493
g62
(dp2494
g82
g83
ssg71
g2488
sg64
(lp2495
S'wsgi'
p2496
asbag57
(g78
g59
NtRp2497
(dp2498
g62
(dp2499
g89
g90
ssg71
g2488
sg64
(lp2500
S':'
asbag57
(g78
g59
NtRp2501
(dp2502
g62
(dp2503
sg71
g2488
sg64
(lp2504
g57
(g58
g59
NtRp2505
(dp2506
g62
(dp2507
g70
I5
ssg71
g2501
sg64
(lp2508
g57
(g66
g59
NtRp2509
(dp2510
g62
(dp2511
g70
I4
ssg71
Nsg64
(lp2512
g57
(g73
g59
NtRp2513
(dp2514
g62
(dp2515
sg71
g2509
sg64
(lp2516
g57
(g78
g59
NtRp2517
(dp2518
g62
(dp2519
g82
g83
ssg71
g2513
sg64
(lp2520
S'environ'
p2521
asbag57
(g78
g59
NtRp2522
(dp2523
g62
(dp2524
g89
g90
ssg71
g2513
sg64
(lp2525
S':'
asbag57
(g78
g59
NtRp2526
(dp2527
g62
(dp2528
sg71
g2513
sg64
(lp2529
g57
(g58
g59
NtRp2530
(dp2531
g62
(dp2532
g70
I4
ssg71
g2526
sg64
(lp2533
g57
(g66
g59
NtRp2534
(dp2535
g62
(dp2536
g70
I3
ssg71
Nsg64
(lp2537
g57
(g73
g59
NtRp2538
(dp2539
g62
(dp2540
sg71
g2534
sg64
(lp2541
g57
(g78
g59
NtRp2542
(dp2543
g62
(dp2544
g82
g83
ssg71
g2538
sg64
(lp2545
S'HTTP_ACCEPT'
p2546
asbag57
(g78
g59
NtRp2547
(dp2548
g62
(dp2549
g89
g90
ssg71
g2538
sg64
(lp2550
S':'
asbag57
(g78
g59
NtRp2551
(dp2552
g62
(dp2553
sg71
g2538
sg64
(lp2554
g57
(g58
g59
NtRp2555
(dp2556
g62
(dp2557
g70
I3
ssg71
g2551
sg64
(lp2558
g1004
asbasbasbag57
(g73
g59
NtRp2559
(dp2560
g62
(dp2561
sg71
g2534
sg64
(lp2562
g57
(g78
g59
NtRp2563
(dp2564
g62
(dp2565
g82
g83
ssg71
g2559
sg64
(lp2566
S'HTTP_ACCEPT_CHARSET'
p2567
asbag57
(g78
g59
NtRp2568
(dp2569
g62
(dp2570
g89
g90
ssg71
g2559
sg64
(lp2571
S':'
asbag57
(g78
g59
NtRp2572
(dp2573
g62
(dp2574
sg71
g2559
sg64
(lp2575
g57
(g58
g59
NtRp2576
(dp2577
g62
(dp2578
g70
I3
ssg71
g2572
sg64
(lp2579
g1026
asbasbasbag57
(g73
g59
NtRp2580
(dp2581
g62
(dp2582
sg71
g2534
sg64
(lp2583
g57
(g78
g59
NtRp2584
(dp2585
g62
(dp2586
g82
g83
ssg71
g2580
sg64
(lp2587
S'HTTP_ACCEPT_ENCODING'
p2588
asbag57
(g78
g59
NtRp2589
(dp2590
g62
(dp2591
g89
g90
ssg71
g2580
sg64
(lp2592
S':'
asbag57
(g78
g59
NtRp2593
(dp2594
g62
(dp2595
sg71
g2580
sg64
(lp2596
g57
(g58
g59
NtRp2597
(dp2598
g62
(dp2599
g70
I3
ssg71
g2593
sg64
(lp2600
g1048
asbasbasbag57
(g73
g59
NtRp2601
(dp2602
g62
(dp2603
sg71
g2534
sg64
(lp2604
g57
(g78
g59
NtRp2605
(dp2606
g62
(dp2607
g82
g83
ssg71
g2601
sg64
(lp2608
S'HTTP_ACCEPT_LANGUAGE'
p2609
asbag57
(g78
g59
NtRp2610
(dp2611
g62
(dp2612
g89
g90
ssg71
g2601
sg64
(lp2613
S':'
asbag57
(g78
g59
NtRp2614
(dp2615
g62
(dp2616
sg71
g2601
sg64
(lp2617
g57
(g58
g59
NtRp2618
(dp2619
g62
(dp2620
g70
I3
ssg71
g2614
sg64
(lp2621
g1070
asbasbasbag57
(g73
g59
NtRp2622
(dp2623
g62
(dp2624
sg71
g2534
sg64
(lp2625
g57
(g78
g59
NtRp2626
(dp2627
g62
(dp2628
g82
g83
ssg71
g2622
sg64
(lp2629
S'HTTP_CONNECTION'
p2630
asbag57
(g78
g59
NtRp2631
(dp2632
g62
(dp2633
g89
g90
ssg71
g2622
sg64
(lp2634
S':'
asbag57
(g78
g59
NtRp2635
(dp2636
g62
(dp2637
sg71
g2622
sg64
(lp2638
g57
(g58
g59
NtRp2639
(dp2640
g62
(dp2641
g70
I3
ssg71
g2635
sg64
(lp2642
g1092
asbasbasbag57
(g73
g59
NtRp2643
(dp2644
g62
(dp2645
sg71
g2534
sg64
(lp2646
g57
(g78
g59
NtRp2647
(dp2648
g62
(dp2649
g82
g83
ssg71
g2643
sg64
(lp2650
S'HTTP_COOKIE'
p2651
asbag57
(g78
g59
NtRp2652
(dp2653
g62
(dp2654
g89
g90
ssg71
g2643
sg64
(lp2655
S':'
asbag57
(g78
g59
NtRp2656
(dp2657
g62
(dp2658
sg71
g2643
sg64
(lp2659
g57
(g58
g59
NtRp2660
(dp2661
g62
(dp2662
g70
I3
ssg71
g2656
sg64
(lp2663
g1114
asbasbasbag57
(g73
g59
NtRp2664
(dp2665
g62
(dp2666
sg71
g2534
sg64
(lp2667
g57
(g78
g59
NtRp2668
(dp2669
g62
(dp2670
g82
g83
ssg71
g2664
sg64
(lp2671
S'HTTP_HOST'
p2672
asbag57
(g78
g59
NtRp2673
(dp2674
g62
(dp2675
g89
g90
ssg71
g2664
sg64
(lp2676
S':'
asbag57
(g78
g59
NtRp2677
(dp2678
g62
(dp2679
sg71
g2664
sg64
(lp2680
g57
(g58
g59
NtRp2681
(dp2682
g62
(dp2683
g70
I3
ssg71
g2677
sg64
(lp2684
g1136
asbasbasbag57
(g73
g59
NtRp2685
(dp2686
g62
(dp2687
sg71
g2534
sg64
(lp2688
g57
(g78
g59
NtRp2689
(dp2690
g62
(dp2691
g82
g83
ssg71
g2685
sg64
(lp2692
S'HTTP_REFERER'
p2693
asbag57
(g78
g59
NtRp2694
(dp2695
g62
(dp2696
g89
g90
ssg71
g2685
sg64
(lp2697
S':'
asbag57
(g78
g59
NtRp2698
(dp2699
g62
(dp2700
sg71
g2685
sg64
(lp2701
g57
(g58
g59
NtRp2702
(dp2703
g62
(dp2704
g70
I3
ssg71
g2698
sg64
(lp2705
g1158
asbasbasbag57
(g73
g59
NtRp2706
(dp2707
g62
(dp2708
sg71
g2534
sg64
(lp2709
g57
(g78
g59
NtRp2710
(dp2711
g62
(dp2712
g82
g83
ssg71
g2706
sg64
(lp2713
S'HTTP_USER_AGENT'
p2714
asbag57
(g78
g59
NtRp2715
(dp2716
g62
(dp2717
g89
g90
ssg71
g2706
sg64
(lp2718
S':'
asbag57
(g78
g59
NtRp2719
(dp2720
g62
(dp2721
sg71
g2706
sg64
(lp2722
g57
(g58
g59
NtRp2723
(dp2724
g62
(dp2725
g70
I3
ssg71
g2719
sg64
(lp2726
g1180
asbasbasbag57
(g73
g59
NtRp2727
(dp2728
g62
(dp2729
sg71
g2534
sg64
(lp2730
g57
(g78
g59
NtRp2731
(dp2732
g62
(dp2733
g82
g83
ssg71
g2727
sg64
(lp2734
S'HTTP_X_REQUESTED_WITH'
p2735
asbag57
(g78
g59
NtRp2736
(dp2737
g62
(dp2738
g89
g90
ssg71
g2727
sg64
(lp2739
S':'
asbag57
(g78
g59
NtRp2740
(dp2741
g62
(dp2742
sg71
g2727
sg64
(lp2743
g57
(g58
g59
NtRp2744
(dp2745
g62
(dp2746
g70
I3
ssg71
g2740
sg64
(lp2747
g1202
asbasbasbag57
(g73
g59
NtRp2748
(dp2749
g62
(dp2750
sg71
g2534
sg64
(lp2751
g57
(g78
g59
NtRp2752
(dp2753
g62
(dp2754
g82
g83
ssg71
g2748
sg64
(lp2755
S'PATH_INFO'
p2756
asbag57
(g78
g59
NtRp2757
(dp2758
g62
(dp2759
g89
g90
ssg71
g2748
sg64
(lp2760
S':'
asbag57
(g78
g59
NtRp2761
(dp2762
g62
(dp2763
sg71
g2748
sg64
(lp2764
g57
(g58
g59
NtRp2765
(dp2766
g62
(dp2767
g70
I3
ssg71
g2761
sg64
(lp2768
g1266
asbasbasbag57
(g73
g59
NtRp2769
(dp2770
g62
(dp2771
sg71
g2534
sg64
(lp2772
g57
(g78
g59
NtRp2773
(dp2774
g62
(dp2775
g82
g83
ssg71
g2769
sg64
(lp2776
S'QUERY_STRING'
p2777
asbag57
(g78
g59
NtRp2778
(dp2779
g62
(dp2780
g89
g90
ssg71
g2769
sg64
(lp2781
S':'
asbag57
(g78
g59
NtRp2782
(dp2783
g62
(dp2784
sg71
g2769
sg64
(lp2785
g57
(g58
g59
NtRp2786
(dp2787
g62
(dp2788
g70
I3
ssg71
g2782
sg64
(lp2789
g1288
asbasbasbag57
(g73
g59
NtRp2790
(dp2791
g62
(dp2792
sg71
g2534
sg64
(lp2793
g57
(g78
g59
NtRp2794
(dp2795
g62
(dp2796
g82
g83
ssg71
g2790
sg64
(lp2797
S'REMOTE_ADDR'
p2798
asbag57
(g78
g59
NtRp2799
(dp2800
g62
(dp2801
g89
g90
ssg71
g2790
sg64
(lp2802
S':'
asbag57
(g78
g59
NtRp2803
(dp2804
g62
(dp2805
sg71
g2790
sg64
(lp2806
g57
(g58
g59
NtRp2807
(dp2808
g62
(dp2809
g70
I3
ssg71
g2803
sg64
(lp2810
g190
asbasbasbag57
(g73
g59
NtRp2811
(dp2812
g62
(dp2813
sg71
g2534
sg64
(lp2814
g57
(g78
g59
NtRp2815
(dp2816
g62
(dp2817
g82
g83
ssg71
g2811
sg64
(lp2818
S'REMOTE_PORT'
p2819
asbag57
(g78
g59
NtRp2820
(dp2821
g62
(dp2822
g89
g90
ssg71
g2811
sg64
(lp2823
S':'
asbag57
(g78
g59
NtRp2824
(dp2825
g62
(dp2826
sg71
g2811
sg64
(lp2827
g57
(g58
g59
NtRp2828
(dp2829
g62
(dp2830
g70
I3
ssg71
g2824
sg64
(lp2831
g1331
asbasbasbag57
(g73
g59
NtRp2832
(dp2833
g62
(dp2834
sg71
g2534
sg64
(lp2835
g57
(g78
g59
NtRp2836
(dp2837
g62
(dp2838
g82
g83
ssg71
g2832
sg64
(lp2839
S'REQUEST_METHOD'
p2840
asbag57
(g78
g59
NtRp2841
(dp2842
g62
(dp2843
g89
g90
ssg71
g2832
sg64
(lp2844
S':'
asbag57
(g78
g59
NtRp2845
(dp2846
g62
(dp2847
sg71
g2832
sg64
(lp2848
g57
(g58
g59
NtRp2849
(dp2850
g62
(dp2851
g70
I3
ssg71
g2845
sg64
(lp2852
g1353
asbasbasbag57
(g73
g59
NtRp2853
(dp2854
g62
(dp2855
sg71
g2534
sg64
(lp2856
g57
(g78
g59
NtRp2857
(dp2858
g62
(dp2859
g82
g83
ssg71
g2853
sg64
(lp2860
S'SCRIPT_NAME'
p2861
asbag57
(g78
g59
NtRp2862
(dp2863
g62
(dp2864
g89
g90
ssg71
g2853
sg64
(lp2865
S':'
asbag57
(g78
g59
NtRp2866
(dp2867
g62
(dp2868
sg71
g2853
sg64
(lp2869
g57
(g58
g59
NtRp2870
(dp2871
g62
(dp2872
g70
I3
ssg71
g2866
sg64
(lp2873
S''
asbasbasbag57
(g73
g59
NtRp2874
(dp2875
g62
(dp2876
sg71
g2534
sg64
(lp2877
g57
(g78
g59
NtRp2878
(dp2879
g62
(dp2880
g82
g83
ssg71
g2874
sg64
(lp2881
S'SERVER_NAME'
p2882
asbag57
(g78
g59
NtRp2883
(dp2884
g62
(dp2885
g89
g90
ssg71
g2874
sg64
(lp2886
S':'
asbag57
(g78
g59
NtRp2887
(dp2888
g62
(dp2889
sg71
g2874
sg64
(lp2890
g57
(g58
g59
NtRp2891
(dp2892
g62
(dp2893
g70
I3
ssg71
g2887
sg64
(lp2894
g1396
asbasbasbag57
(g73
g59
NtRp2895
(dp2896
g62
(dp2897
sg71
g2534
sg64
(lp2898
g57
(g78
g59
NtRp2899
(dp2900
g62
(dp2901
g82
g83
ssg71
g2895
sg64
(lp2902
S'SERVER_PORT'
p2903
asbag57
(g78
g59
NtRp2904
(dp2905
g62
(dp2906
g89
g90
ssg71
g2895
sg64
(lp2907
S':'
asbag57
(g78
g59
NtRp2908
(dp2909
g62
(dp2910
sg71
g2895
sg64
(lp2911
g57
(g58
g59
NtRp2912
(dp2913
g62
(dp2914
g70
I3
ssg71
g2908
sg64
(lp2915
g1418
asbasbasbag57
(g73
g59
NtRp2916
(dp2917
g62
(dp2918
sg71
g2534
sg64
(lp2919
g57
(g78
g59
NtRp2920
(dp2921
g62
(dp2922
g82
g83
ssg71
g2916
sg64
(lp2923
S'SERVER_PROTOCOL'
p2924
asbag57
(g78
g59
NtRp2925
(dp2926
g62
(dp2927
g89
g90
ssg71
g2916
sg64
(lp2928
S':'
asbag57
(g78
g59
NtRp2929
(dp2930
g62
(dp2931
sg71
g2916
sg64
(lp2932
g57
(g58
g59
NtRp2933
(dp2934
g62
(dp2935
g70
I3
ssg71
g2929
sg64
(lp2936
g1440
asbasbasbag57
(g73
g59
NtRp2937
(dp2938
g62
(dp2939
sg71
g2534
sg64
(lp2940
g57
(g78
g59
NtRp2941
(dp2942
g62
(dp2943
g82
g83
ssg71
g2937
sg64
(lp2944
S'SERVER_SOFTWARE'
p2945
asbag57
(g78
g59
NtRp2946
(dp2947
g62
(dp2948
g89
g90
ssg71
g2937
sg64
(lp2949
S':'
asbag57
(g78
g59
NtRp2950
(dp2951
g62
(dp2952
sg71
g2937
sg64
(lp2953
g57
(g58
g59
NtRp2954
(dp2955
g62
(dp2956
g70
I3
ssg71
g2950
sg64
(lp2957
g1462
asbasbasbag57
(g73
g59
NtRp2958
(dp2959
g62
(dp2960
sg71
g2534
sg64
(lp2961
g57
(g78
g59
NtRp2962
(dp2963
g62
(dp2964
g82
g83
ssg71
g2958
sg64
(lp2965
S'wsgi.errors'
p2966
asbag57
(g78
g59
NtRp2967
(dp2968
g62
(dp2969
g89
g90
ssg71
g2958
sg64
(lp2970
S':'
asbag57
(g78
g59
NtRp2971
(dp2972
g62
(dp2973
sg71
g2958
sg64
(lp2974
g57
(g58
g59
NtRp2975
(dp2976
g62
(dp2977
g70
I3
ssg71
g2971
sg64
(lp2978
S"<open file '<stderr>', mode 'w' at 0x7f675bf8a1e0>"
p2979
asbasbasbag57
(g73
g59
NtRp2980
(dp2981
g62
(dp2982
sg71
g2534
sg64
(lp2983
g57
(g78
g59
NtRp2984
(dp2985
g62
(dp2986
g82
g83
ssg71
g2980
sg64
(lp2987
S'wsgi.file_wrapper'
p2988
asbag57
(g78
g59
NtRp2989
(dp2990
g62
(dp2991
g89
g90
ssg71
g2980
sg64
(lp2992
S':'
asbag57
(g78
g59
NtRp2993
(dp2994
g62
(dp2995
sg71
g2980
sg64
(lp2996
g57
(g58
g59
NtRp2997
(dp2998
g62
(dp2999
g70
I3
ssg71
g2993
sg64
(lp3000
S'<class wsgiref.util.FileWrapper at 0x1b194d0>'
p3001
asbasbasbag57
(g73
g59
NtRp3002
(dp3003
g62
(dp3004
sg71
g2534
sg64
(lp3005
g57
(g78
g59
NtRp3006
(dp3007
g62
(dp3008
g82
g83
ssg71
g3002
sg64
(lp3009
S'wsgi.input'
p3010
asbag57
(g78
g59
NtRp3011
(dp3012
g62
(dp3013
g89
g90
ssg71
g3002
sg64
(lp3014
S':'
asbag57
(g78
g59
NtRp3015
(dp3016
g62
(dp3017
sg71
g3002
sg64
(lp3018
g57
(g58
g59
NtRp3019
(dp3020
g62
(dp3021
g70
I3
ssg71
g3015
sg64
(lp3022
S'<cStringIO.StringO object at 0x235e730>'
p3023
asbasbasbag57
(g73
g59
NtRp3024
(dp3025
g62
(dp3026
sg71
g2534
sg64
(lp3027
g57
(g78
g59
NtRp3028
(dp3029
g62
(dp3030
g82
g83
ssg71
g3024
sg64
(lp3031
S'wsgi.multiprocess'
p3032
asbag57
(g78
g59
NtRp3033
(dp3034
g62
(dp3035
g89
g90
ssg71
g3024
sg64
(lp3036
S':'
asbag57
(g78
g59
NtRp3037
(dp3038
g62
(dp3039
sg71
g3024
sg64
(lp3040
g57
(g58
g59
NtRp3041
(dp3042
g62
(dp3043
g70
I3
ssg71
g3037
sg64
(lp3044
g960
asbasbasbag57
(g73
g59
NtRp3045
(dp3046
g62
(dp3047
sg71
g2534
sg64
(lp3048
g57
(g78
g59
NtRp3049
(dp3050
g62
(dp3051
g82
g83
ssg71
g3045
sg64
(lp3052
S'wsgi.multithread'
p3053
asbag57
(g78
g59
NtRp3054
(dp3055
g62
(dp3056
g89
g90
ssg71
g3045
sg64
(lp3057
S':'
asbag57
(g78
g59
NtRp3058
(dp3059
g62
(dp3060
sg71
g3045
sg64
(lp3061
g57
(g58
g59
NtRp3062
(dp3063
g62
(dp3064
g70
I3
ssg71
g3058
sg64
(lp3065
g100
asbasbasbag57
(g73
g59
NtRp3066
(dp3067
g62
(dp3068
sg71
g2534
sg64
(lp3069
g57
(g78
g59
NtRp3070
(dp3071
g62
(dp3072
g82
g83
ssg71
g3066
sg64
(lp3073
S'wsgi.run_once'
p3074
asbag57
(g78
g59
NtRp3075
(dp3076
g62
(dp3077
g89
g90
ssg71
g3066
sg64
(lp3078
S':'
asbag57
(g78
g59
NtRp3079
(dp3080
g62
(dp3081
sg71
g3066
sg64
(lp3082
g57
(g58
g59
NtRp3083
(dp3084
g62
(dp3085
g70
I3
ssg71
g3079
sg64
(lp3086
g960
asbasbasbag57
(g73
g59
NtRp3087
(dp3088
g62
(dp3089
sg71
g2534
sg64
(lp3090
g57
(g78
g59
NtRp3091
(dp3092
g62
(dp3093
g82
g83
ssg71
g3087
sg64
(lp3094
S'wsgi.url_scheme'
p3095
asbag57
(g78
g59
NtRp3096
(dp3097
g62
(dp3098
g89
g90
ssg71
g3087
sg64
(lp3099
S':'
asbag57
(g78
g59
NtRp3100
(dp3101
g62
(dp3102
sg71
g3087
sg64
(lp3103
g57
(g58
g59
NtRp3104
(dp3105
g62
(dp3106
g70
I3
ssg71
g3100
sg64
(lp3107
g1744
asbasbasbag57
(g73
g59
NtRp3108
(dp3109
g62
(dp3110
sg71
g2534
sg64
(lp3111
g57
(g78
g59
NtRp3112
(dp3113
g62
(dp3114
g82
g83
ssg71
g3108
sg64
(lp3115
S'wsgi.version'
p3116
asbag57
(g78
g59
NtRp3117
(dp3118
g62
(dp3119
g89
g90
ssg71
g3108
sg64
(lp3120
S':'
asbag57
(g78
g59
NtRp3121
(dp3122
g62
(dp3123
sg71
g3108
sg64
(lp3124
g57
(g58
g59
NtRp3125
(dp3126
g62
(dp3127
g70
I3
ssg71
g3121
sg64
(lp3128
S'1'
asbasbasbasbasbasbasbasbasbasbasbasbasbsS'frames'
p3129
(lp3130
(dp3131
S'file'
p3132
S'/home/andromeda/work/graphing/web2py/gluon/restricted.py'
p3133
sS'dump'
p3134
(dp3135
S'environment'
p3136
S"{'A': <class 'gluon.html.A'>, 'Auth': <class 'gluon.tools.Auth'>, 'B': <class 'gluon.html.B'>, 'BEAUTIFY': <class 'gluon.html.BEAUTIFY'>, 'BODY': <class 'gluon.html.BODY'>, 'BR': <class 'gluon.html.BR'>, 'BUTTON': <class 'gluon.html.BUTTON'>, 'CAT': <class 'gluon.html.CAT'>, 'CENTER': <class 'gluon.html.CENTER'>, 'CLEANUP': <class 'gluon.validators.CLEANUP'>, ...}"
p3137
sS'ccode'
p3138
S'<code object <module> at 0x2477f30, file "/home/...ications/testtest/controllers/utils.py", line 17>'
p3139
ssS'lnum'
p3140
I204
sS'lines'
p3141
(dp3142
I199
S'    try:'
p3143
sI200
S'        if type(code) == types.CodeType:'
p3144
sI201
S'            ccode = code'
p3145
sI202
S'        else:'
p3146
sI203
S'            ccode = compile2(code,layer)'
p3147
sI204
S'        exec ccode in environment'
p3148
sI205
S'    except HTTP:'
p3149
sI206
S'        raise'
p3150
sI207
S'    except RestrictedError:'
p3151
sI208
S'        # do not encapsulate (obfuscate) the original RestrictedError'
p3152
ssS'call'
p3153
S'(code=\'\\n\\\'\\\'\\\'\\n1. Store data as\\n    {"timestamp":<>, "name..._params,\\n}\\n\\nresponse._vars=response._caller(api)\\n\', environment={\'A\': <class \'gluon.html.A\'>, \'Auth\': <class \'gluon.tools.Auth\'>, \'B\': <class \'gluon.html.B\'>, \'BEAUTIFY\': <class \'gluon.html.BEAUTIFY\'>, \'BODY\': <class \'gluon.html.BODY\'>, \'BR\': <class \'gluon.html.BR\'>, \'BUTTON\': <class \'gluon.html.BUTTON\'>, \'CAT\': <class \'gluon.html.CAT\'>, \'CENTER\': <class \'gluon.html.CENTER\'>, \'CLEANUP\': <class \'gluon.validators.CLEANUP\'>, ...}, layer=\'/home/andromeda/work/graphing/web2py/applications/testtest/controllers/utils.py\')'
p3154
sS'func'
p3155
S'restricted'
p3156
sa(dp3157
g3132
S'/home/andromeda/work/graphing/web2py/applications/testtest/controllers/utils.py'
p3158
sg3134
(dp3159
sg3140
I124
sg3141
(dp3160
I113
S'FuncDict = {'
p3161
sI114
S"    'get': get,"
p3162
sI115
S"    'sd': sd,"
p3163
sI116
S"    'mean': mean,"
p3164
sI117
S"    'sd_rolling': sd_rolling,"
p3165
sI118
S"    'mean_rolling': mean_rolling,"
p3166
sI119
S"    'dailychange': dailychange,"
p3167
sI120
S"    'ag_over_time': ag_over_time,"
p3168
sI121
S"    'get_params': get_params,"
p3169
sI122
S'}'
ssg3153
S'()'
p3170
sg3155
S'<module>'
p3171
sa(dp3172
g3132
S'/home/andromeda/work/graphing/web2py/gluon/globals.py'
p3173
sg3134
(dp3174
S'self'
p3175
S'undefined'
p3176
sS'f'
S'<function api>'
p3177
ssg3140
I172
sg3141
(dp3178
I167
S'        self.meta = Storage()      # used by web2py_ajax.html'
p3179
sI168
S'        self.menu = []             # used by the default view layout'
p3180
sI169
S'        self.files = []            # used by web2py_ajax.html'
p3181
sI170
S'        self.generic_patterns = [] # patterns to allow generic views'
p3182
sI171
S'        self._vars = None'
p3183
sI172
S'        self._caller = lambda f: f()'
p3184
sI173
S'        self._view_environment = None'
p3185
sI174
S'        self._custom_commit = None'
p3186
sI175
S'        self._custom_rollback = None'
p3187
sI176
S''
ssg3153
S'(f=<function api>)'
p3188
sg3155
S'<lambda>'
p3189
sa(dp3190
g3132
S'/home/andromeda/work/graphing/web2py/applications/testtest/controllers/utils.py'
p3191
sg3134
(dp3192
S'global FuncDict'
p3193
S"{'ag_over_time': <function ag_over_time>, 'dailychange': <function dailychange>, 'get': <function get>, 'get_params': <function get_params>, 'mean': <function mean>, 'mean_rolling': <function mean_rolling>, 'sd': <function sd>, 'sd_rolling': <function sd_rolling>}"
p3194
sS'global request'
p3195
S"<Storage {'body': <cStringIO.StringO object at 0...et', 'name': 'EOI'}>, 'post_vars': <Storage {}>}>"
p3196
sS'global json'
p3197
S"<module 'json' from '/usr/lib/python2.6/json/__init__.pyc'>"
p3198
sS'json.dumps'
p3199
S'<function dumps>'
p3200
sS't'
S"'get'"
p3201
sS'request.vars'
p3202
S"<Storage {'type': 'get', 'name': 'EOI'}>"
p3203
ssg3140
I28
sg3141
(dp3204
I32
S'    return dict()'
p3205
sI23
S'Table = DB.DataStore'
p3206
sI24
S''
sI25
S''
sI26
S'def api():'
p3207
sI27
S"    t = request.vars['type']"
p3208
sI28
S'    return json.dumps(FuncDict[t](**request.vars))'
p3209
sI29
S''
sI30
S'def index():'
p3210
sI31
S"    response.view = 'main.html'"
p3211
ssg3153
S'()'
p3212
sg3155
S'api'
p3213
sa(dp3214
g3132
S'/home/andromeda/work/graphing/web2py/applications/testtest/controllers/utils.py'
p3215
sg3134
(dp3216
S'e'
S"{u'_id': ObjectId('4f4809da233a5249d2000001'), u'name': u'EOI', u'timestamp': 734503, u'value': 444}"
p3217
sS'name'
p3218
S"'EOI'"
p3219
sS'res'
p3220
g3176
sS'start_ts'
p3221
S'0'
sS'global Table'
p3222
S"Collection(Database(Connection('localhost', 27017), u'timeseries_data'), u'DataStore')"
p3223
sS'date'
p3224
g3176
sS'Table.find'
p3225
S"<bound method Collection.find of Collection(Data...ost', 27017), u'timeseries_data'), u'DataStore')>"
p3226
sS').strftime'
p3227
g3176
ssg3140
I52
sg3141
(dp3228
I47
S'            res.append({"timestamp":e["timestamp"], "name":k, "value":v})'
p3229
sI48
S'    Table.insert(res)'
p3230
sI49
S'    return True'
p3231
sI50
S''
sI51
S'def get(name, start_ts=0, num=None, **kwargs):'
p3232
sI52
S'    res = [[e["value"], date.fromordinal(e["timestamp"]).strftime("%Y-%m-%d")] for e in Table.find({"name":name, "timestamp":{"$gte":start_ts}})]'
p3233
sI53
S'    if num:res=res[:num]'
p3234
sI54
S'    return res'
p3235
sI55
S''
sI56
S'def sd(name, *args, **kwargs):'
p3236
ssg3153
S"(name='EOI', start_ts=0, num=None, **kwargs={'type': 'get'})"
p3237
sg3155
S'get'
p3238
sasS'pyver'
p3239
S'Python 2.6.5: /usr/bin/python'
p3240
sS'session'
p3241
g57
(g58
g59
NtRp3242
(dp3243
g62
(dp3244
sg64
(lp3245
g57
(g66
g59
NtRp3246
(dp3247
g62
(dp3248
g70
I5
ssg71
Nsg64
(lp3249
sbasbsS'etype'
p3250
S"<type 'exceptions.NameError'>"
p3251
sS'date'
p3252
S'Sat Feb 25 21:24:54 2012'
p3253
sS'response'
p3254
g57
(g58
g59
NtRp3255
(dp3256
g62
(dp3257
sg64
(lp3258
g57
(g66
g59
NtRp3259
(dp3260
g62
(dp3261
g70
I5
ssg71
Nsg64
(lp3262
g57
(g73
g59
NtRp3263
(dp3264
g62
(dp3265
sg71
g3259
sg64
(lp3266
g57
(g78
g59
NtRp3267
(dp3268
g62
(dp3269
g82
g83
ssg71
g3263
sg64
(lp3270
g155
asbag57
(g78
g59
NtRp3271
(dp3272
g62
(dp3273
g89
g90
ssg71
g3263
sg64
(lp3274
S':'
asbag57
(g78
g59
NtRp3275
(dp3276
g62
(dp3277
sg71
g3263
sg64
(lp3278
g57
(g58
g59
NtRp3279
(dp3280
g62
(dp3281
g70
I5
ssg71
g3275
sg64
(lp3282
S'<cStringIO.StringO object at 0x22b2148>'
p3283
asbasbasbag57
(g73
g59
NtRp3284
(dp3285
g62
(dp3286
sg71
g3259
sg64
(lp3287
g57
(g78
g59
NtRp3288
(dp3289
g62
(dp3290
g82
g83
ssg71
g3284
sg64
(lp3291
g221
asbag57
(g78
g59
NtRp3292
(dp3293
g62
(dp3294
g89
g90
ssg71
g3284
sg64
(lp3295
S':'
asbag57
(g78
g59
NtRp3296
(dp3297
g62
(dp3298
sg71
g3284
sg64
(lp3299
g57
(g58
g59
NtRp3300
(dp3301
g62
(dp3302
g70
I5
ssg71
g3296
sg64
(lp3303
g57
(g66
g59
NtRp3304
(dp3305
g62
(dp3306
g70
I4
ssg71
Nsg64
(lp3307
g57
(g73
g59
NtRp3308
(dp3309
g62
(dp3310
sg71
g3304
sg64
(lp3311
g57
(g78
g59
NtRp3312
(dp3313
g62
(dp3314
g82
g83
ssg71
g3308
sg64
(lp3315
S'session_id_testtest'
p3316
asbag57
(g78
g59
NtRp3317
(dp3318
g62
(dp3319
g89
g90
ssg71
g3308
sg64
(lp3320
S':'
asbag57
(g78
g59
NtRp3321
(dp3322
g62
(dp3323
sg71
g3308
sg64
(lp3324
g57
(g58
g59
NtRp3325
(dp3326
g62
(dp3327
g70
I4
ssg71
g3321
sg64
(lp3328
g57
(g66
g59
NtRp3329
(dp3330
g62
(dp3331
g70
I3
ssg71
Nsg64
(lp3332
g57
(g73
g59
NtRp3333
(dp3334
g62
(dp3335
sg71
g3329
sg64
(lp3336
g57
(g78
g59
NtRp3337
(dp3338
g62
(dp3339
g82
g83
ssg71
g3333
sg64
(lp3340
g271
asbag57
(g78
g59
NtRp3341
(dp3342
g62
(dp3343
g89
g90
ssg71
g3333
sg64
(lp3344
S':'
asbag57
(g78
g59
NtRp3345
(dp3346
g62
(dp3347
sg71
g3333
sg64
(lp3348
g57
(g58
g59
NtRp3349
(dp3350
g62
(dp3351
g70
I3
ssg71
g3345
sg64
(lp3352
S''
asbasbasbag57
(g73
g59
NtRp3353
(dp3354
g62
(dp3355
sg71
g3329
sg64
(lp3356
g57
(g78
g59
NtRp3357
(dp3358
g62
(dp3359
g82
g83
ssg71
g3353
sg64
(lp3360
g292
asbag57
(g78
g59
NtRp3361
(dp3362
g62
(dp3363
g89
g90
ssg71
g3353
sg64
(lp3364
S':'
asbag57
(g78
g59
NtRp3365
(dp3366
g62
(dp3367
sg71
g3353
sg64
(lp3368
g57
(g58
g59
NtRp3369
(dp3370
g62
(dp3371
g70
I3
ssg71
g3365
sg64
(lp3372
S''
asbasbasbag57
(g73
g59
NtRp3373
(dp3374
g62
(dp3375
sg71
g3329
sg64
(lp3376
g57
(g78
g59
NtRp3377
(dp3378
g62
(dp3379
g82
g83
ssg71
g3373
sg64
(lp3380
g313
asbag57
(g78
g59
NtRp3381
(dp3382
g62
(dp3383
g89
g90
ssg71
g3373
sg64
(lp3384
S':'
asbag57
(g78
g59
NtRp3385
(dp3386
g62
(dp3387
sg71
g3373
sg64
(lp3388
g57
(g58
g59
NtRp3389
(dp3390
g62
(dp3391
g70
I3
ssg71
g3385
sg64
(lp3392
S''
asbasbasbag57
(g73
g59
NtRp3393
(dp3394
g62
(dp3395
sg71
g3329
sg64
(lp3396
g57
(g78
g59
NtRp3397
(dp3398
g62
(dp3399
g82
g83
ssg71
g3393
sg64
(lp3400
g334
asbag57
(g78
g59
NtRp3401
(dp3402
g62
(dp3403
g89
g90
ssg71
g3393
sg64
(lp3404
S':'
asbag57
(g78
g59
NtRp3405
(dp3406
g62
(dp3407
sg71
g3393
sg64
(lp3408
g57
(g58
g59
NtRp3409
(dp3410
g62
(dp3411
g70
I3
ssg71
g3405
sg64
(lp3412
S''
asbasbasbag57
(g73
g59
NtRp3413
(dp3414
g62
(dp3415
sg71
g3329
sg64
(lp3416
g57
(g78
g59
NtRp3417
(dp3418
g62
(dp3419
g82
g83
ssg71
g3413
sg64
(lp3420
g355
asbag57
(g78
g59
NtRp3421
(dp3422
g62
(dp3423
g89
g90
ssg71
g3413
sg64
(lp3424
S':'
asbag57
(g78
g59
NtRp3425
(dp3426
g62
(dp3427
sg71
g3413
sg64
(lp3428
g57
(g58
g59
NtRp3429
(dp3430
g62
(dp3431
g70
I3
ssg71
g3425
sg64
(lp3432
S''
asbasbasbag57
(g73
g59
NtRp3433
(dp3434
g62
(dp3435
sg71
g3329
sg64
(lp3436
g57
(g78
g59
NtRp3437
(dp3438
g62
(dp3439
g82
g83
ssg71
g3433
sg64
(lp3440
g376
asbag57
(g78
g59
NtRp3441
(dp3442
g62
(dp3443
g89
g90
ssg71
g3433
sg64
(lp3444
S':'
asbag57
(g78
g59
NtRp3445
(dp3446
g62
(dp3447
sg71
g3433
sg64
(lp3448
g57
(g58
g59
NtRp3449
(dp3450
g62
(dp3451
g70
I3
ssg71
g3445
sg64
(lp3452
S'/'
asbasbasbag57
(g73
g59
NtRp3453
(dp3454
g62
(dp3455
sg71
g3329
sg64
(lp3456
g57
(g78
g59
NtRp3457
(dp3458
g62
(dp3459
g82
g83
ssg71
g3453
sg64
(lp3460
g397
asbag57
(g78
g59
NtRp3461
(dp3462
g62
(dp3463
g89
g90
ssg71
g3453
sg64
(lp3464
S':'
asbag57
(g78
g59
NtRp3465
(dp3466
g62
(dp3467
sg71
g3453
sg64
(lp3468
g57
(g58
g59
NtRp3469
(dp3470
g62
(dp3471
g70
I3
ssg71
g3465
sg64
(lp3472
S''
asbasbasbag57
(g73
g59
NtRp3473
(dp3474
g62
(dp3475
sg71
g3329
sg64
(lp3476
g57
(g78
g59
NtRp3477
(dp3478
g62
(dp3479
g82
g83
ssg71
g3473
sg64
(lp3480
g418
asbag57
(g78
g59
NtRp3481
(dp3482
g62
(dp3483
g89
g90
ssg71
g3473
sg64
(lp3484
S':'
asbag57
(g78
g59
NtRp3485
(dp3486
g62
(dp3487
sg71
g3473
sg64
(lp3488
g57
(g58
g59
NtRp3489
(dp3490
g62
(dp3491
g70
I3
ssg71
g3485
sg64
(lp3492
S''
asbasbasbasbasbasbasbasbasbasbasbag57
(g73
g59
NtRp3493
(dp3494
g62
(dp3495
sg71
g3259
sg64
(lp3496
g57
(g78
g59
NtRp3497
(dp3498
g62
(dp3499
g82
g83
ssg71
g3493
sg64
(lp3500
S'files'
p3501
asbag57
(g78
g59
NtRp3502
(dp3503
g62
(dp3504
g89
g90
ssg71
g3493
sg64
(lp3505
S':'
asbag57
(g78
g59
NtRp3506
(dp3507
g62
(dp3508
sg71
g3493
sg64
(lp3509
g57
(g58
g59
NtRp3510
(dp3511
g62
(dp3512
g70
I5
ssg71
g3506
sg64
(lp3513
g57
(g66
g59
NtRp3514
(dp3515
g62
(dp3516
g70
I4
ssg71
Nsg64
(lp3517
sbasbasbasbag57
(g73
g59
NtRp3518
(dp3519
g62
(dp3520
sg71
g3259
sg64
(lp3521
g57
(g78
g59
NtRp3522
(dp3523
g62
(dp3524
g82
g83
ssg71
g3518
sg64
(lp3525
S'flash'
p3526
asbag57
(g78
g59
NtRp3527
(dp3528
g62
(dp3529
g89
g90
ssg71
g3518
sg64
(lp3530
S':'
asbag57
(g78
g59
NtRp3531
(dp3532
g62
(dp3533
sg71
g3518
sg64
(lp3534
g57
(g58
g59
NtRp3535
(dp3536
g62
(dp3537
g70
I5
ssg71
g3531
sg64
(lp3538
S''
asbasbasbag57
(g73
g59
NtRp3539
(dp3540
g62
(dp3541
sg71
g3259
sg64
(lp3542
g57
(g78
g59
NtRp3543
(dp3544
g62
(dp3545
g82
g83
ssg71
g3539
sg64
(lp3546
S'generic_patterns'
p3547
asbag57
(g78
g59
NtRp3548
(dp3549
g62
(dp3550
g89
g90
ssg71
g3539
sg64
(lp3551
S':'
asbag57
(g78
g59
NtRp3552
(dp3553
g62
(dp3554
sg71
g3539
sg64
(lp3555
g57
(g58
g59
NtRp3556
(dp3557
g62
(dp3558
g70
I5
ssg71
g3552
sg64
(lp3559
g57
(g66
g59
NtRp3560
(dp3561
g62
(dp3562
g70
I4
ssg71
Nsg64
(lp3563
g57
(g73
g59
NtRp3564
(dp3565
g62
(dp3566
sg71
g3560
sg64
(lp3567
g57
(g78
g59
NtRp3568
(dp3569
g62
(dp3570
sg71
g3564
sg64
(lp3571
g57
(g58
g59
NtRp3572
(dp3573
g62
(dp3574
g70
I4
ssg71
g3568
sg64
(lp3575
S'*'
asbasbasbasbasbasbasbag57
(g73
g59
NtRp3576
(dp3577
g62
(dp3578
sg71
g3259
sg64
(lp3579
g57
(g78
g59
NtRp3580
(dp3581
g62
(dp3582
g82
g83
ssg71
g3576
sg64
(lp3583
S'headers'
p3584
asbag57
(g78
g59
NtRp3585
(dp3586
g62
(dp3587
g89
g90
ssg71
g3576
sg64
(lp3588
S':'
asbag57
(g78
g59
NtRp3589
(dp3590
g62
(dp3591
sg71
g3576
sg64
(lp3592
g57
(g58
g59
NtRp3593
(dp3594
g62
(dp3595
g70
I5
ssg71
g3589
sg64
(lp3596
g57
(g66
g59
NtRp3597
(dp3598
g62
(dp3599
g70
I4
ssg71
Nsg64
(lp3600
g57
(g73
g59
NtRp3601
(dp3602
g62
(dp3603
sg71
g3597
sg64
(lp3604
g57
(g78
g59
NtRp3605
(dp3606
g62
(dp3607
g82
g83
ssg71
g3601
sg64
(lp3608
S'Cache-Control'
p3609
asbag57
(g78
g59
NtRp3610
(dp3611
g62
(dp3612
g89
g90
ssg71
g3601
sg64
(lp3613
S':'
asbag57
(g78
g59
NtRp3614
(dp3615
g62
(dp3616
sg71
g3601
sg64
(lp3617
g57
(g58
g59
NtRp3618
(dp3619
g62
(dp3620
g70
I4
ssg71
g3614
sg64
(lp3621
S'no-store, no-cache, must-revalidate, post-check=0, pre-check=0'
p3622
asbasbasbag57
(g73
g59
NtRp3623
(dp3624
g62
(dp3625
sg71
g3597
sg64
(lp3626
g57
(g78
g59
NtRp3627
(dp3628
g62
(dp3629
g82
g83
ssg71
g3623
sg64
(lp3630
S'Content-Type'
p3631
asbag57
(g78
g59
NtRp3632
(dp3633
g62
(dp3634
g89
g90
ssg71
g3623
sg64
(lp3635
S':'
asbag57
(g78
g59
NtRp3636
(dp3637
g62
(dp3638
sg71
g3623
sg64
(lp3639
g57
(g58
g59
NtRp3640
(dp3641
g62
(dp3642
g70
I4
ssg71
g3636
sg64
(lp3643
S'text/html; charset=utf-8'
p3644
asbasbasbag57
(g73
g59
NtRp3645
(dp3646
g62
(dp3647
sg71
g3597
sg64
(lp3648
g57
(g78
g59
NtRp3649
(dp3650
g62
(dp3651
g82
g83
ssg71
g3645
sg64
(lp3652
S'Expires'
p3653
asbag57
(g78
g59
NtRp3654
(dp3655
g62
(dp3656
g89
g90
ssg71
g3645
sg64
(lp3657
S':'
asbag57
(g78
g59
NtRp3658
(dp3659
g62
(dp3660
sg71
g3645
sg64
(lp3661
g57
(g58
g59
NtRp3662
(dp3663
g62
(dp3664
g70
I4
ssg71
g3658
sg64
(lp3665
S'Sat, 25 Feb 2012 15:54:54 GMT'
p3666
asbasbasbag57
(g73
g59
NtRp3667
(dp3668
g62
(dp3669
sg71
g3597
sg64
(lp3670
g57
(g78
g59
NtRp3671
(dp3672
g62
(dp3673
g82
g83
ssg71
g3667
sg64
(lp3674
S'Pragma'
p3675
asbag57
(g78
g59
NtRp3676
(dp3677
g62
(dp3678
g89
g90
ssg71
g3667
sg64
(lp3679
S':'
asbag57
(g78
g59
NtRp3680
(dp3681
g62
(dp3682
sg71
g3667
sg64
(lp3683
g57
(g58
g59
NtRp3684
(dp3685
g62
(dp3686
g70
I4
ssg71
g3680
sg64
(lp3687
S'no-cache'
p3688
asbasbasbag57
(g73
g59
NtRp3689
(dp3690
g62
(dp3691
sg71
g3597
sg64
(lp3692
g57
(g78
g59
NtRp3693
(dp3694
g62
(dp3695
g82
g83
ssg71
g3689
sg64
(lp3696
S'X-Powered-By'
p3697
asbag57
(g78
g59
NtRp3698
(dp3699
g62
(dp3700
g89
g90
ssg71
g3689
sg64
(lp3701
S':'
asbag57
(g78
g59
NtRp3702
(dp3703
g62
(dp3704
sg71
g3689
sg64
(lp3705
g57
(g58
g59
NtRp3706
(dp3707
g62
(dp3708
g70
I4
ssg71
g3702
sg64
(lp3709
S'web2py'
p3710
asbasbasbasbasbasbasbag57
(g73
g59
NtRp3711
(dp3712
g62
(dp3713
sg71
g3259
sg64
(lp3714
g57
(g78
g59
NtRp3715
(dp3716
g62
(dp3717
g82
g83
ssg71
g3711
sg64
(lp3718
S'menu'
p3719
asbag57
(g78
g59
NtRp3720
(dp3721
g62
(dp3722
g89
g90
ssg71
g3711
sg64
(lp3723
S':'
asbag57
(g78
g59
NtRp3724
(dp3725
g62
(dp3726
sg71
g3711
sg64
(lp3727
g57
(g58
g59
NtRp3728
(dp3729
g62
(dp3730
g70
I5
ssg71
g3724
sg64
(lp3731
g57
(g66
g59
NtRp3732
(dp3733
g62
(dp3734
g70
I4
ssg71
Nsg64
(lp3735
g57
(g73
g59
NtRp3736
(dp3737
g62
(dp3738
sg71
g3732
sg64
(lp3739
g57
(g78
g59
NtRp3740
(dp3741
g62
(dp3742
sg71
g3736
sg64
(lp3743
g57
(g58
g59
NtRp3744
(dp3745
g62
(dp3746
g70
I4
ssg71
g3740
sg64
(lp3747
g57
(g66
g59
NtRp3748
(dp3749
g62
(dp3750
g70
I3
ssg71
Nsg64
(lp3751
g57
(g73
g59
NtRp3752
(dp3753
g62
(dp3754
sg71
g3748
sg64
(lp3755
g57
(g78
g59
NtRp3756
(dp3757
g62
(dp3758
sg71
g3752
sg64
(lp3759
g57
(g58
g59
NtRp3760
(dp3761
g62
(dp3762
g70
I3
ssg71
g3756
sg64
(lp3763
cgluon.languages
lazyT_unpickle
p3764
(S's\x04\x00\x00\x00Home'
tRp3765
asbasbasbag57
(g73
g59
NtRp3766
(dp3767
g62
(dp3768
sg71
g3748
sg64
(lp3769
g57
(g78
g59
NtRp3770
(dp3771
g62
(dp3772
sg71
g3766
sg64
(lp3773
g57
(g58
g59
NtRp3774
(dp3775
g62
(dp3776
g70
I3
ssg71
g3770
sg64
(lp3777
g960
asbasbasbag57
(g73
g59
NtRp3778
(dp3779
g62
(dp3780
sg71
g3748
sg64
(lp3781
g57
(g78
g59
NtRp3782
(dp3783
g62
(dp3784
sg71
g3778
sg64
(lp3785
g57
(g58
g59
NtRp3786
(dp3787
g62
(dp3788
g70
I3
ssg71
g3782
sg64
(lp3789
S'/testtest/default/index'
p3790
asbasbasbag57
(g73
g59
NtRp3791
(dp3792
g62
(dp3793
sg71
g3748
sg64
(lp3794
g57
(g78
g59
NtRp3795
(dp3796
g62
(dp3797
sg71
g3791
sg64
(lp3798
g57
(g58
g59
NtRp3799
(dp3800
g62
(dp3801
g70
I3
ssg71
g3795
sg64
(lp3802
g57
(g66
g59
NtRp3803
(dp3804
g62
(dp3805
g70
I2
ssg71
Nsg64
(lp3806
sbasbasbasbasbasbasbasbag57
(g73
g59
NtRp3807
(dp3808
g62
(dp3809
sg71
g3732
sg64
(lp3810
g57
(g78
g59
NtRp3811
(dp3812
g62
(dp3813
sg71
g3807
sg64
(lp3814
g57
(g58
g59
NtRp3815
(dp3816
g62
(dp3817
g70
I4
ssg71
g3811
sg64
(lp3818
g57
(g66
g59
NtRp3819
(dp3820
g62
(dp3821
g70
I3
ssg71
Nsg64
(lp3822
g57
(g73
g59
NtRp3823
(dp3824
g62
(dp3825
sg71
g3819
sg64
(lp3826
g57
(g78
g59
NtRp3827
(dp3828
g62
(dp3829
sg71
g3823
sg64
(lp3830
g57
(g58
g59
NtRp3831
(dp3832
g62
(dp3833
g70
I3
ssg71
g3827
sg64
(lp3834
g57
(cgluon.html
SPAN
p3835
g59
NtRp3836
(dp3837
g62
(dp3838
g82
S'color:yellow'
p3839
ssg71
Nsg64
(lp3840
g3710
asbasbasbasbag57
(g73
g59
NtRp3841
(dp3842
g62
(dp3843
sg71
g3819
sg64
(lp3844
g57
(g78
g59
NtRp3845
(dp3846
g62
(dp3847
sg71
g3841
sg64
(lp3848
g57
(g58
g59
NtRp3849
(dp3850
g62
(dp3851
g70
I3
ssg71
g3845
sg64
(lp3852
g960
asbasbasbag57
(g73
g59
NtRp3853
(dp3854
g62
(dp3855
sg71
g3819
sg64
(lp3856
g57
(g78
g59
NtRp3857
(dp3858
g62
(dp3859
sg71
g3853
sg64
(lp3860
g57
(g58
g59
NtRp3861
(dp3862
g62
(dp3863
g70
I3
ssg71
g3857
sg64
(lp3864
S'None'
p3865
asbasbasbag57
(g73
g59
NtRp3866
(dp3867
g62
(dp3868
sg71
g3819
sg64
(lp3869
g57
(g78
g59
NtRp3870
(dp3871
g62
(dp3872
sg71
g3866
sg64
(lp3873
g57
(g58
g59
NtRp3874
(dp3875
g62
(dp3876
g70
I3
ssg71
g3870
sg64
(lp3877
g57
(g66
g59
NtRp3878
(dp3879
g62
(dp3880
g70
I2
ssg71
Nsg64
(lp3881
g57
(g73
g59
NtRp3882
(dp3883
g62
(dp3884
sg71
g3878
sg64
(lp3885
g57
(g78
g59
NtRp3886
(dp3887
g62
(dp3888
sg71
g3882
sg64
(lp3889
g57
(g58
g59
NtRp3890
(dp3891
g62
(dp3892
g70
I2
ssg71
g3886
sg64
(lp3893
g57
(g66
g59
NtRp3894
(dp3895
g62
(dp3896
g70
I1
ssg71
Nsg64
(lp3897
g57
(g73
g59
NtRp3898
(dp3899
g62
(dp3900
sg71
g3894
sg64
(lp3901
g57
(g78
g59
NtRp3902
(dp3903
g62
(dp3904
sg71
g3898
sg64
(lp3905
g57
(g58
g59
NtRp3906
(dp3907
g62
(dp3908
g70
I1
ssg71
g3902
sg64
(lp3909
g3764
(S's\x08\x00\x00\x00My Sites'
tRp3910
asbasbasbag57
(g73
g59
NtRp3911
(dp3912
g62
(dp3913
sg71
g3894
sg64
(lp3914
g57
(g78
g59
NtRp3915
(dp3916
g62
(dp3917
sg71
g3911
sg64
(lp3918
g57
(g58
g59
NtRp3919
(dp3920
g62
(dp3921
g70
I1
ssg71
g3915
sg64
(lp3922
I00
asbasbasbag57
(g73
g59
NtRp3923
(dp3924
g62
(dp3925
sg71
g3894
sg64
(lp3926
g57
(g78
g59
NtRp3927
(dp3928
g62
(dp3929
sg71
g3923
sg64
(lp3930
g57
(g58
g59
NtRp3931
(dp3932
g62
(dp3933
g70
I1
ssg71
g3927
sg64
(lp3934
S'/admin/default/site'
p3935
asbasbasbasbasbasbasbag57
(g73
g59
NtRp3936
(dp3937
g62
(dp3938
sg71
g3878
sg64
(lp3939
g57
(g78
g59
NtRp3940
(dp3941
g62
(dp3942
sg71
g3936
sg64
(lp3943
g57
(g58
g59
NtRp3944
(dp3945
g62
(dp3946
g70
I2
ssg71
g3940
sg64
(lp3947
g57
(g66
g59
NtRp3948
(dp3949
g62
(dp3950
g70
I1
ssg71
Nsg64
(lp3951
g57
(g73
g59
NtRp3952
(dp3953
g62
(dp3954
sg71
g3948
sg64
(lp3955
g57
(g78
g59
NtRp3956
(dp3957
g62
(dp3958
sg71
g3952
sg64
(lp3959
g57
(g58
g59
NtRp3960
(dp3961
g62
(dp3962
g70
I1
ssg71
g3956
sg64
(lp3963
g3764
(S's\x08\x00\x00\x00This App'
tRp3964
asbasbasbag57
(g73
g59
NtRp3965
(dp3966
g62
(dp3967
sg71
g3948
sg64
(lp3968
g57
(g78
g59
NtRp3969
(dp3970
g62
(dp3971
sg71
g3965
sg64
(lp3972
g57
(g58
g59
NtRp3973
(dp3974
g62
(dp3975
g70
I1
ssg71
g3969
sg64
(lp3976
I00
asbasbasbag57
(g73
g59
NtRp3977
(dp3978
g62
(dp3979
sg71
g3948
sg64
(lp3980
g57
(g78
g59
NtRp3981
(dp3982
g62
(dp3983
sg71
g3977
sg64
(lp3984
g57
(g58
g59
NtRp3985
(dp3986
g62
(dp3987
g70
I1
ssg71
g3981
sg64
(lp3988
S'/admin/default/design/testtest'
p3989
asbasbasbag57
(g73
g59
NtRp3990
(dp3991
g62
(dp3992
sg71
g3948
sg64
(lp3993
g57
(g78
g59
NtRp3994
(dp3995
g62
(dp3996
sg71
g3990
sg64
(lp3997
g57
(g58
g59
NtRp3998
(dp3999
g62
(dp4000
g70
I1
ssg71
g3994
sg64
(lp4001
(lp4002
(g3764
(S's\n\x00\x00\x00Controller'
tRp4003
I00
S'/admin/default/edit/testtest/controllers/utils.py'
tp4004
a(g3764
(S's\x04\x00\x00\x00View'
tRp4005
I00
S'/admin/default/edit/testtest/views/utils/api.html'
tp4006
a(g3764
(S's\x06\x00\x00\x00Layout'
tRp4007
I00
S'/admin/default/edit/testtest/views/layout.html'
tp4008
a(g3764
(S's\n\x00\x00\x00Stylesheet'
tRp4009
I00
S'/admin/default/edit/testtest/static/css/web2py.css'
tp4010
a(g3764
(S's\x08\x00\x00\x00DB Model'
tRp4011
I00
S'/admin/default/edit/testtest/models/db.py'
tp4012
a(g3764
(S's\n\x00\x00\x00Menu Model'
tRp4013
I00
S'/admin/default/edit/testtest/models/menu.py'
tp4014
a(g3764
(S's\x08\x00\x00\x00Database'
tRp4015
I00
S'/testtest/appadmin/index'
tp4016
a(g3764
(S's\x06\x00\x00\x00Errors'
tRp4017
I00
S'/admin/default/errors/testtest'
tp4018
a(g3764
(S's\x05\x00\x00\x00About'
tRp4019
I00
S'/admin/default/about/testtest'
tp4020
aasbasbasbasbasbasbasbag57
(g73
g59
NtRp4021
(dp4022
g62
(dp4023
sg71
g3878
sg64
(lp4024
g57
(g78
g59
NtRp4025
(dp4026
g62
(dp4027
sg71
g4021
sg64
(lp4028
g57
(g58
g59
NtRp4029
(dp4030
g62
(dp4031
g70
I2
ssg71
g4025
sg64
(lp4032
g57
(g66
g59
NtRp4033
(dp4034
g62
(dp4035
g70
I1
ssg71
Nsg64
(lp4036
g57
(g73
g59
NtRp4037
(dp4038
g62
(dp4039
sg71
g4033
sg64
(lp4040
g57
(g78
g59
NtRp4041
(dp4042
g62
(dp4043
sg71
g4037
sg64
(lp4044
g57
(g58
g59
NtRp4045
(dp4046
g62
(dp4047
g70
I1
ssg71
g4041
sg64
(lp4048
S'web2py.com'
p4049
asbasbasbag57
(g73
g59
NtRp4050
(dp4051
g62
(dp4052
sg71
g4033
sg64
(lp4053
g57
(g78
g59
NtRp4054
(dp4055
g62
(dp4056
sg71
g4050
sg64
(lp4057
g57
(g58
g59
NtRp4058
(dp4059
g62
(dp4060
g70
I1
ssg71
g4054
sg64
(lp4061
I00
asbasbasbag57
(g73
g59
NtRp4062
(dp4063
g62
(dp4064
sg71
g4033
sg64
(lp4065
g57
(g78
g59
NtRp4066
(dp4067
g62
(dp4068
sg71
g4062
sg64
(lp4069
g57
(g58
g59
NtRp4070
(dp4071
g62
(dp4072
g70
I1
ssg71
g4066
sg64
(lp4073
S'http://www.web2py.com'
p4074
asbasbasbag57
(g73
g59
NtRp4075
(dp4076
g62
(dp4077
sg71
g4033
sg64
(lp4078
g57
(g78
g59
NtRp4079
(dp4080
g62
(dp4081
sg71
g4075
sg64
(lp4082
g57
(g58
g59
NtRp4083
(dp4084
g62
(dp4085
g70
I1
ssg71
g4079
sg64
(lp4086
(lp4087
(g3764
(S's\x08\x00\x00\x00Download'
tRp4088
I00
S'http://www.web2py.com/examples/default/download'
p4089
tp4090
a(g3764
(S's\x07\x00\x00\x00Support'
tRp4091
I00
S'http://www.web2py.com/examples/default/support'
p4092
tp4093
a(g3764
(S's\x04\x00\x00\x00Demo'
tRp4094
I00
S'http://web2py.com/demo_admin'
p4095
tp4096
a(g3764
(S's\x0e\x00\x00\x00Quick Examples'
tRp4097
I00
S'http://web2py.com/examples/default/examples'
p4098
tp4099
a(g3764
(S's\x03\x00\x00\x00FAQ'
tRp4100
I00
S'http://web2py.com/AlterEgo'
p4101
tp4102
a(g3764
(S's\x06\x00\x00\x00Videos'
tRp4103
I00
S'http://www.web2py.com/examples/default/videos/'
p4104
tp4105
a(g3764
(S's\x11\x00\x00\x00Free Applications'
tRp4106
I00
S'http://web2py.com/appliances'
p4107
tp4108
a(g3764
(S's\x07\x00\x00\x00Plugins'
tRp4109
I00
S'http://web2py.com/plugins'
p4110
tp4111
a(g3764
(S's\x07\x00\x00\x00Layouts'
tRp4112
I00
S'http://web2py.com/layouts'
p4113
tp4114
a(g3764
(S's\x07\x00\x00\x00Recipes'
tRp4115
I00
S'http://web2pyslices.com/'
p4116
tp4117
a(g3764
(S's\x08\x00\x00\x00Semantic'
tRp4118
I00
S'http://web2py.com/semantic'
p4119
tp4120
aasbasbasbasbasbasbasbag57
(g73
g59
NtRp4121
(dp4122
g62
(dp4123
sg71
g3878
sg64
(lp4124
g57
(g78
g59
NtRp4125
(dp4126
g62
(dp4127
sg71
g4121
sg64
(lp4128
g57
(g58
g59
NtRp4129
(dp4130
g62
(dp4131
g70
I2
ssg71
g4125
sg64
(lp4132
g57
(g66
g59
NtRp4133
(dp4134
g62
(dp4135
g70
I1
ssg71
Nsg64
(lp4136
g57
(g73
g59
NtRp4137
(dp4138
g62
(dp4139
sg71
g4133
sg64
(lp4140
g57
(g78
g59
NtRp4141
(dp4142
g62
(dp4143
sg71
g4137
sg64
(lp4144
g57
(g58
g59
NtRp4145
(dp4146
g62
(dp4147
g70
I1
ssg71
g4141
sg64
(lp4148
g3764
(S's\r\x00\x00\x00Documentation'
tRp4149
asbasbasbag57
(g73
g59
NtRp4150
(dp4151
g62
(dp4152
sg71
g4133
sg64
(lp4153
g57
(g78
g59
NtRp4154
(dp4155
g62
(dp4156
sg71
g4150
sg64
(lp4157
g57
(g58
g59
NtRp4158
(dp4159
g62
(dp4160
g70
I1
ssg71
g4154
sg64
(lp4161
I00
asbasbasbag57
(g73
g59
NtRp4162
(dp4163
g62
(dp4164
sg71
g4133
sg64
(lp4165
g57
(g78
g59
NtRp4166
(dp4167
g62
(dp4168
sg71
g4162
sg64
(lp4169
g57
(g58
g59
NtRp4170
(dp4171
g62
(dp4172
g70
I1
ssg71
g4166
sg64
(lp4173
S'http://www.web2py.com/book'
p4174
asbasbasbag57
(g73
g59
NtRp4175
(dp4176
g62
(dp4177
sg71
g4133
sg64
(lp4178
g57
(g78
g59
NtRp4179
(dp4180
g62
(dp4181
sg71
g4175
sg64
(lp4182
g57
(g58
g59
NtRp4183
(dp4184
g62
(dp4185
g70
I1
ssg71
g4179
sg64
(lp4186
(lp4187
(g3764
(S's\x07\x00\x00\x00Preface'
tRp4188
I00
S'http://www.web2py.com/book/default/chapter/00'
p4189
tp4190
a(g3764
(S's\x0c\x00\x00\x00Introduction'
tRp4191
I00
S'http://www.web2py.com/book/default/chapter/01'
p4192
tp4193
a(g3764
(S's\x06\x00\x00\x00Python'
tRp4194
I00
S'http://www.web2py.com/book/default/chapter/02'
p4195
tp4196
a(g3764
(S's\x08\x00\x00\x00Overview'
tRp4197
I00
S'http://www.web2py.com/book/default/chapter/03'
p4198
tp4199
a(g3764
(S's\x08\x00\x00\x00The Core'
tRp4200
I00
S'http://www.web2py.com/book/default/chapter/04'
p4201
tp4202
a(g3764
(S's\t\x00\x00\x00The Views'
tRp4203
I00
S'http://www.web2py.com/book/default/chapter/05'
p4204
tp4205
a(g3764
(S's\x08\x00\x00\x00Database'
tRp4206
I00
S'http://www.web2py.com/book/default/chapter/06'
p4207
tp4208
a(g3764
(S's\x14\x00\x00\x00Forms and Validators'
tRp4209
I00
S'http://www.web2py.com/book/default/chapter/07'
p4210
tp4211
a(g3764
(S's\r\x00\x00\x00Email and SMS'
tRp4212
I00
S'http://www.web2py.com/book/default/chapter/08'
p4213
tp4214
a(g3764
(S's\x0e\x00\x00\x00Access Control'
tRp4215
I00
S'http://www.web2py.com/book/default/chapter/09'
p4216
tp4217
a(g3764
(S's\x08\x00\x00\x00Services'
tRp4218
I00
S'http://www.web2py.com/book/default/chapter/10'
p4219
tp4220
a(g3764
(S's\x0c\x00\x00\x00Ajax Recipes'
tRp4221
I00
S'http://www.web2py.com/book/default/chapter/11'
p4222
tp4223
a(g3764
(S's\x16\x00\x00\x00Components and Plugins'
tRp4224
I00
S'http://www.web2py.com/book/default/chapter/12'
p4225
tp4226
a(g3764
(S's\x12\x00\x00\x00Deployment Recipes'
tRp4227
I00
S'http://www.web2py.com/book/default/chapter/13'
p4228
tp4229
a(g3764
(S's\r\x00\x00\x00Other Recipes'
tRp4230
I00
S'http://www.web2py.com/book/default/chapter/14'
p4231
tp4232
a(g3764
(S's\r\x00\x00\x00Buy this book'
tRp4233
I00
S'http://stores.lulu.com/web2py'
p4234
tp4235
aasbasbasbasbasbasbasbag57
(g73
g59
NtRp4236
(dp4237
g62
(dp4238
sg71
g3878
sg64
(lp4239
g57
(g78
g59
NtRp4240
(dp4241
g62
(dp4242
sg71
g4236
sg64
(lp4243
g57
(g58
g59
NtRp4244
(dp4245
g62
(dp4246
g70
I2
ssg71
g4240
sg64
(lp4247
g57
(g66
g59
NtRp4248
(dp4249
g62
(dp4250
g70
I1
ssg71
Nsg64
(lp4251
g57
(g73
g59
NtRp4252
(dp4253
g62
(dp4254
sg71
g4248
sg64
(lp4255
g57
(g78
g59
NtRp4256
(dp4257
g62
(dp4258
sg71
g4252
sg64
(lp4259
g57
(g58
g59
NtRp4260
(dp4261
g62
(dp4262
g70
I1
ssg71
g4256
sg64
(lp4263
g3764
(S's\t\x00\x00\x00Community'
tRp4264
asbasbasbag57
(g73
g59
NtRp4265
(dp4266
g62
(dp4267
sg71
g4248
sg64
(lp4268
g57
(g78
g59
NtRp4269
(dp4270
g62
(dp4271
sg71
g4265
sg64
(lp4272
g57
(g58
g59
NtRp4273
(dp4274
g62
(dp4275
g70
I1
ssg71
g4269
sg64
(lp4276
I00
asbasbasbag57
(g73
g59
NtRp4277
(dp4278
g62
(dp4279
sg71
g4248
sg64
(lp4280
g57
(g78
g59
NtRp4281
(dp4282
g62
(dp4283
sg71
g4277
sg64
(lp4284
g57
(g58
g59
NtRp4285
(dp4286
g62
(dp4287
g70
I1
ssg71
g4281
sg64
(lp4288
Nasbasbasbag57
(g73
g59
NtRp4289
(dp4290
g62
(dp4291
sg71
g4248
sg64
(lp4292
g57
(g78
g59
NtRp4293
(dp4294
g62
(dp4295
sg71
g4289
sg64
(lp4296
g57
(g58
g59
NtRp4297
(dp4298
g62
(dp4299
g70
I1
ssg71
g4293
sg64
(lp4300
(lp4301
(g3764
(S's\x06\x00\x00\x00Groups'
tRp4302
I00
S'http://www.web2py.com/examples/default/usergroups'
p4303
tp4304
a(g3764
(S's\x07\x00\x00\x00Twitter'
tRp4305
I00
S'http://twitter.com/web2py'
p4306
tp4307
a(g3764
(S's\t\x00\x00\x00Live Chat'
tRp4308
I00
S'http://webchat.freenode.net/?channels=web2py'
p4309
tp4310
aasbasbasbasbasbasbasbag57
(g73
g59
NtRp4311
(dp4312
g62
(dp4313
sg71
g3878
sg64
(lp4314
g57
(g78
g59
NtRp4315
(dp4316
g62
(dp4317
sg71
g4311
sg64
(lp4318
g57
(g58
g59
NtRp4319
(dp4320
g62
(dp4321
g70
I2
ssg71
g4315
sg64
(lp4322
g57
(g66
g59
NtRp4323
(dp4324
g62
(dp4325
g70
I1
ssg71
Nsg64
(lp4326
g57
(g73
g59
NtRp4327
(dp4328
g62
(dp4329
sg71
g4323
sg64
(lp4330
g57
(g78
g59
NtRp4331
(dp4332
g62
(dp4333
sg71
g4327
sg64
(lp4334
g57
(g58
g59
NtRp4335
(dp4336
g62
(dp4337
g70
I1
ssg71
g4331
sg64
(lp4338
g3764
(S's\x07\x00\x00\x00Plugins'
tRp4339
asbasbasbag57
(g73
g59
NtRp4340
(dp4341
g62
(dp4342
sg71
g4323
sg64
(lp4343
g57
(g78
g59
NtRp4344
(dp4345
g62
(dp4346
sg71
g4340
sg64
(lp4347
g57
(g58
g59
NtRp4348
(dp4349
g62
(dp4350
g70
I1
ssg71
g4344
sg64
(lp4351
I00
asbasbasbag57
(g73
g59
NtRp4352
(dp4353
g62
(dp4354
sg71
g4323
sg64
(lp4355
g57
(g78
g59
NtRp4356
(dp4357
g62
(dp4358
sg71
g4352
sg64
(lp4359
g57
(g58
g59
NtRp4360
(dp4361
g62
(dp4362
g70
I1
ssg71
g4356
sg64
(lp4363
Nasbasbasbag57
(g73
g59
NtRp4364
(dp4365
g62
(dp4366
sg71
g4323
sg64
(lp4367
g57
(g78
g59
NtRp4368
(dp4369
g62
(dp4370
sg71
g4364
sg64
(lp4371
g57
(g58
g59
NtRp4372
(dp4373
g62
(dp4374
g70
I1
ssg71
g4368
sg64
(lp4375
(lp4376
(S'plugin_wiki'
p4377
I00
S'http://web2py.com/examples/default/download'
p4378
tp4379
a(g3764
(S's\r\x00\x00\x00Other Plugins'
tRp4380
I00
g4110
tp4381
a(g3764
(S's\x0e\x00\x00\x00Layout Plugins'
tRp4382
I00
g4113
tp4383
aasbasbasbasbasbasbasbasbasbasbasbasbasbasbasbasbasbasbasbag57
(g73
g59
NtRp4384
(dp4385
g62
(dp4386
sg71
g3259
sg64
(lp4387
g57
(g78
g59
NtRp4388
(dp4389
g62
(dp4390
g82
g83
ssg71
g4384
sg64
(lp4391
S'meta'
p4392
asbag57
(g78
g59
NtRp4393
(dp4394
g62
(dp4395
g89
g90
ssg71
g4384
sg64
(lp4396
S':'
asbag57
(g78
g59
NtRp4397
(dp4398
g62
(dp4399
sg71
g4384
sg64
(lp4400
g57
(g58
g59
NtRp4401
(dp4402
g62
(dp4403
g70
I5
ssg71
g4397
sg64
(lp4404
g57
(g66
g59
NtRp4405
(dp4406
g62
(dp4407
g70
I4
ssg71
Nsg64
(lp4408
g57
(g73
g59
NtRp4409
(dp4410
g62
(dp4411
sg71
g4405
sg64
(lp4412
g57
(g78
g59
NtRp4413
(dp4414
g62
(dp4415
g82
g83
ssg71
g4409
sg64
(lp4416
S'author'
p4417
asbag57
(g78
g59
NtRp4418
(dp4419
g62
(dp4420
g89
g90
ssg71
g4409
sg64
(lp4421
S':'
asbag57
(g78
g59
NtRp4422
(dp4423
g62
(dp4424
sg71
g4409
sg64
(lp4425
g57
(g58
g59
NtRp4426
(dp4427
g62
(dp4428
g70
I4
ssg71
g4422
sg64
(lp4429
S'Your Name <you@example.com>'
p4430
asbasbasbag57
(g73
g59
NtRp4431
(dp4432
g62
(dp4433
sg71
g4405
sg64
(lp4434
g57
(g78
g59
NtRp4435
(dp4436
g62
(dp4437
g82
g83
ssg71
g4431
sg64
(lp4438
S'copyright'
p4439
asbag57
(g78
g59
NtRp4440
(dp4441
g62
(dp4442
g89
g90
ssg71
g4431
sg64
(lp4443
S':'
asbag57
(g78
g59
NtRp4444
(dp4445
g62
(dp4446
sg71
g4431
sg64
(lp4447
g57
(g58
g59
NtRp4448
(dp4449
g62
(dp4450
g70
I4
ssg71
g4444
sg64
(lp4451
S'Copyright 2011'
p4452
asbasbasbag57
(g73
g59
NtRp4453
(dp4454
g62
(dp4455
sg71
g4405
sg64
(lp4456
g57
(g78
g59
NtRp4457
(dp4458
g62
(dp4459
g82
g83
ssg71
g4453
sg64
(lp4460
S'description'
p4461
asbag57
(g78
g59
NtRp4462
(dp4463
g62
(dp4464
g89
g90
ssg71
g4453
sg64
(lp4465
S':'
asbag57
(g78
g59
NtRp4466
(dp4467
g62
(dp4468
sg71
g4453
sg64
(lp4469
g57
(g58
g59
NtRp4470
(dp4471
g62
(dp4472
g70
I4
ssg71
g4466
sg64
(lp4473
S'a cool new app'
p4474
asbasbasbag57
(g73
g59
NtRp4475
(dp4476
g62
(dp4477
sg71
g4405
sg64
(lp4478
g57
(g78
g59
NtRp4479
(dp4480
g62
(dp4481
g82
g83
ssg71
g4475
sg64
(lp4482
S'generator'
p4483
asbag57
(g78
g59
NtRp4484
(dp4485
g62
(dp4486
g89
g90
ssg71
g4475
sg64
(lp4487
S':'
asbag57
(g78
g59
NtRp4488
(dp4489
g62
(dp4490
sg71
g4475
sg64
(lp4491
g57
(g58
g59
NtRp4492
(dp4493
g62
(dp4494
g70
I4
ssg71
g4488
sg64
(lp4495
S'Web2py Web Framework'
p4496
asbasbasbag57
(g73
g59
NtRp4497
(dp4498
g62
(dp4499
sg71
g4405
sg64
(lp4500
g57
(g78
g59
NtRp4501
(dp4502
g62
(dp4503
g82
g83
ssg71
g4497
sg64
(lp4504
S'keywords'
p4505
asbag57
(g78
g59
NtRp4506
(dp4507
g62
(dp4508
g89
g90
ssg71
g4497
sg64
(lp4509
S':'
asbag57
(g78
g59
NtRp4510
(dp4511
g62
(dp4512
sg71
g4497
sg64
(lp4513
g57
(g58
g59
NtRp4514
(dp4515
g62
(dp4516
g70
I4
ssg71
g4510
sg64
(lp4517
S'web2py, python, framework'
p4518
asbasbasbasbasbasbasbag57
(g73
g59
NtRp4519
(dp4520
g62
(dp4521
sg71
g3259
sg64
(lp4522
g57
(g78
g59
NtRp4523
(dp4524
g62
(dp4525
g82
g83
ssg71
g4519
sg64
(lp4526
S'postprocessing'
p4527
asbag57
(g78
g59
NtRp4528
(dp4529
g62
(dp4530
g89
g90
ssg71
g4519
sg64
(lp4531
S':'
asbag57
(g78
g59
NtRp4532
(dp4533
g62
(dp4534
sg71
g4519
sg64
(lp4535
g57
(g58
g59
NtRp4536
(dp4537
g62
(dp4538
g70
I5
ssg71
g4532
sg64
(lp4539
g57
(g66
g59
NtRp4540
(dp4541
g62
(dp4542
g70
I4
ssg71
Nsg64
(lp4543
sbasbasbasbag57
(g73
g59
NtRp4544
(dp4545
g62
(dp4546
sg71
g3259
sg64
(lp4547
g57
(g78
g59
NtRp4548
(dp4549
g62
(dp4550
g82
g83
ssg71
g4544
sg64
(lp4551
S'session_file'
p4552
asbag57
(g78
g59
NtRp4553
(dp4554
g62
(dp4555
g89
g90
ssg71
g4544
sg64
(lp4556
S':'
asbag57
(g78
g59
NtRp4557
(dp4558
g62
(dp4559
sg71
g4544
sg64
(lp4560
g57
(g58
g59
NtRp4561
(dp4562
g62
(dp4563
g70
I5
ssg71
g4557
sg64
(lp4564
S"<open file '/home/andromeda/work/graphing/web2py/applications/testtest/sessions/127.0.0.1-4ad632aa-8339-462d-96fe-1d877bdde192', mode 'rb+' at 0x22ae420>"
p4565
asbasbasbag57
(g73
g59
NtRp4566
(dp4567
g62
(dp4568
sg71
g3259
sg64
(lp4569
g57
(g78
g59
NtRp4570
(dp4571
g62
(dp4572
g82
g83
ssg71
g4566
sg64
(lp4573
S'session_filename'
p4574
asbag57
(g78
g59
NtRp4575
(dp4576
g62
(dp4577
g89
g90
ssg71
g4566
sg64
(lp4578
S':'
asbag57
(g78
g59
NtRp4579
(dp4580
g62
(dp4581
sg71
g4566
sg64
(lp4582
g57
(g58
g59
NtRp4583
(dp4584
g62
(dp4585
g70
I5
ssg71
g4579
sg64
(lp4586
S'/home/andromeda/work/graphing/web2py/applications/testtest/sessions/127.0.0.1-4ad632aa-8339-462d-96fe-1d877bdde192'
p4587
asbasbasbag57
(g73
g59
NtRp4588
(dp4589
g62
(dp4590
sg71
g3259
sg64
(lp4591
g57
(g78
g59
NtRp4592
(dp4593
g62
(dp4594
g82
g83
ssg71
g4588
sg64
(lp4595
S'session_id'
p4596
asbag57
(g78
g59
NtRp4597
(dp4598
g62
(dp4599
g89
g90
ssg71
g4588
sg64
(lp4600
S':'
asbag57
(g78
g59
NtRp4601
(dp4602
g62
(dp4603
sg71
g4588
sg64
(lp4604
g57
(g58
g59
NtRp4605
(dp4606
g62
(dp4607
g70
I5
ssg71
g4601
sg64
(lp4608
S'127.0.0.1-4ad632aa-8339-462d-96fe-1d877bdde192'
p4609
asbasbasbag57
(g73
g59
NtRp4610
(dp4611
g62
(dp4612
sg71
g3259
sg64
(lp4613
g57
(g78
g59
NtRp4614
(dp4615
g62
(dp4616
g82
g83
ssg71
g4610
sg64
(lp4617
S'session_id_name'
p4618
asbag57
(g78
g59
NtRp4619
(dp4620
g62
(dp4621
g89
g90
ssg71
g4610
sg64
(lp4622
S':'
asbag57
(g78
g59
NtRp4623
(dp4624
g62
(dp4625
sg71
g4610
sg64
(lp4626
g57
(g58
g59
NtRp4627
(dp4628
g62
(dp4629
g70
I5
ssg71
g4623
sg64
(lp4630
g3316
asbasbasbag57
(g73
g59
NtRp4631
(dp4632
g62
(dp4633
sg71
g3259
sg64
(lp4634
g57
(g78
g59
NtRp4635
(dp4636
g62
(dp4637
g82
g83
ssg71
g4631
sg64
(lp4638
S'session_locked'
p4639
asbag57
(g78
g59
NtRp4640
(dp4641
g62
(dp4642
g89
g90
ssg71
g4631
sg64
(lp4643
S':'
asbag57
(g78
g59
NtRp4644
(dp4645
g62
(dp4646
sg71
g4631
sg64
(lp4647
g57
(g58
g59
NtRp4648
(dp4649
g62
(dp4650
g70
I5
ssg71
g4644
sg64
(lp4651
g100
asbasbasbag57
(g73
g59
NtRp4652
(dp4653
g62
(dp4654
sg71
g3259
sg64
(lp4655
g57
(g78
g59
NtRp4656
(dp4657
g62
(dp4658
g82
g83
ssg71
g4652
sg64
(lp4659
S'session_new'
p4660
asbag57
(g78
g59
NtRp4661
(dp4662
g62
(dp4663
g89
g90
ssg71
g4652
sg64
(lp4664
S':'
asbag57
(g78
g59
NtRp4665
(dp4666
g62
(dp4667
sg71
g4652
sg64
(lp4668
g57
(g58
g59
NtRp4669
(dp4670
g62
(dp4671
g70
I5
ssg71
g4665
sg64
(lp4672
g960
asbasbasbag57
(g73
g59
NtRp4673
(dp4674
g62
(dp4675
sg71
g3259
sg64
(lp4676
g57
(g78
g59
NtRp4677
(dp4678
g62
(dp4679
g82
g83
ssg71
g4673
sg64
(lp4680
S'status'
p4681
asbag57
(g78
g59
NtRp4682
(dp4683
g62
(dp4684
g89
g90
ssg71
g4673
sg64
(lp4685
S':'
asbag57
(g78
g59
NtRp4686
(dp4687
g62
(dp4688
sg71
g4673
sg64
(lp4689
g57
(g58
g59
NtRp4690
(dp4691
g62
(dp4692
g70
I5
ssg71
g4686
sg64
(lp4693
S'200'
p4694
asbasbasbag57
(g73
g59
NtRp4695
(dp4696
g62
(dp4697
sg71
g3259
sg64
(lp4698
g57
(g78
g59
NtRp4699
(dp4700
g62
(dp4701
g82
g83
ssg71
g4695
sg64
(lp4702
S'subtitle'
p4703
asbag57
(g78
g59
NtRp4704
(dp4705
g62
(dp4706
g89
g90
ssg71
g4695
sg64
(lp4707
S':'
asbag57
(g78
g59
NtRp4708
(dp4709
g62
(dp4710
sg71
g4695
sg64
(lp4711
g57
(g58
g59
NtRp4712
(dp4713
g62
(dp4714
g70
I5
ssg71
g4708
sg64
(lp4715
g3764
(S's\r\x00\x00\x00customize me!'
tRp4716
asbasbasbag57
(g73
g59
NtRp4717
(dp4718
g62
(dp4719
sg71
g3259
sg64
(lp4720
g57
(g78
g59
NtRp4721
(dp4722
g62
(dp4723
g82
g83
ssg71
g4717
sg64
(lp4724
S'title'
p4725
asbag57
(g78
g59
NtRp4726
(dp4727
g62
(dp4728
g89
g90
ssg71
g4717
sg64
(lp4729
S':'
asbag57
(g78
g59
NtRp4730
(dp4731
g62
(dp4732
sg71
g4717
sg64
(lp4733
g57
(g58
g59
NtRp4734
(dp4735
g62
(dp4736
g70
I5
ssg71
g4730
sg64
(lp4737
S'Testtest'
p4738
asbasbasbag57
(g73
g59
NtRp4739
(dp4740
g62
(dp4741
sg71
g3259
sg64
(lp4742
g57
(g78
g59
NtRp4743
(dp4744
g62
(dp4745
g82
g83
ssg71
g4739
sg64
(lp4746
g2409
asbag57
(g78
g59
NtRp4747
(dp4748
g62
(dp4749
g89
g90
ssg71
g4739
sg64
(lp4750
S':'
asbag57
(g78
g59
NtRp4751
(dp4752
g62
(dp4753
sg71
g4739
sg64
(lp4754
g57
(g58
g59
NtRp4755
(dp4756
g62
(dp4757
g70
I5
ssg71
g4751
sg64
(lp4758
g2422
asbasbasbag57
(g73
g59
NtRp4759
(dp4760
g62
(dp4761
sg71
g3259
sg64
(lp4762
g57
(g78
g59
NtRp4763
(dp4764
g62
(dp4765
g82
g83
ssg71
g4759
sg64
(lp4766
S'view'
p4767
asbag57
(g78
g59
NtRp4768
(dp4769
g62
(dp4770
g89
g90
ssg71
g4759
sg64
(lp4771
S':'
asbag57
(g78
g59
NtRp4772
(dp4773
g62
(dp4774
sg71
g4759
sg64
(lp4775
g57
(g58
g59
NtRp4776
(dp4777
g62
(dp4778
g70
I5
ssg71
g4772
sg64
(lp4779
S'utils/api.html'
p4780
asbasbasbasbasbsS'locals'
p4781
(dp4782
S'e'
S"{u'_id': ObjectId('4f4809da233a5249d2000001'), u'name': u'EOI', u'timestamp': 734503, u'value': 444}"
p4783
sS'name'
p4784
S"'EOI'"
p4785
sS'start_ts'
p4786
S'0'
sS'_[1]'
p4787
S'[]'
p4788
sS'num'
p4789
S'None'
p4790
sS'kwargs'
p4791
S"{'type': 'get'}"
p4792
sssS'traceback'
p4793
S'Traceback (most recent call last):\n  File "/home/andromeda/work/graphing/web2py/gluon/restricted.py", line 204, in restricted\n    exec ccode in environment\n  File "/home/andromeda/work/graphing/web2py/applications/testtest/controllers/utils.py", line 124, in <module>\n  File "/home/andromeda/work/graphing/web2py/gluon/globals.py", line 172, in <lambda>\n    self._caller = lambda f: f()\n  File "/home/andromeda/work/graphing/web2py/applications/testtest/controllers/utils.py", line 28, in api\n    return json.dumps(FuncDict[t](**request.vars))\n  File "/home/andromeda/work/graphing/web2py/applications/testtest/controllers/utils.py", line 52, in get\n    res = [[e["value"], date.fromordinal(e["timestamp"]).strftime("%Y-%m-%d")] for e in Table.find({"name":name, "timestamp":{"$gte":start_ts}})]\nNameError: global name \'date\' is not defined\n'
p4794
s.