(dp1
S'output'
p2
S"<type 'exceptions.SyntaxError'> invalid syntax (utils.py, line 28)"
p3
sS'layer'
p4
S'/home/andromeda/work/graphing/web2py/applications/testtest/controllers/utils.py'
p5
sS'code'
p6
S'\n\'\'\'\n1. Store data as\n    {"timestamp":<>, "name":<>, "value":<>}\n\n2. Create new data points and store them along with previous data\n\n    Operations on data:\n        Standard Deviation\n        Moving Average\n        DailyChange\n        Aggregate Over a Period\n        Arithmatic operation on Params with \'i\' as index\n\n\nmongo.get return [(data, ts)...]\n\'\'\'\nimport json\nimport numpy as np\nfrom pymongo import Connection\nconnection = Connection(\'localhost\', 27017)\nDB = connection.timeseries_data\nTable = DB.DataStore\n\n\ndef api():\n    t = request.vars[\'type\']\n    print **request.vars\n    return json.dumps(FuncDict[t](**request.vars))\n    \n    \n\ndef index():\n    response.view = \'main.html\'\n    return dict()\n    \ndef rolling_window(a, window):\n    shape = a.shape[:-1] + (a.shape[-1] - window + 1, window)   \n    strides = a.strides + (a.strides[-1],)\n    return np.lib.stride_tricks.as_strided(a, shape=shape, strides=strides)\n\ndef store(data):\n    res=[]\n    for e in data:\n        for k,v in e.items():\n            if k=="timestamp":continue\n            res.append({"timestamp":e["timestamp"], "name":k, "value":v})\n    Table.insert(res)\n    return True\n\ndef get(name, start_ts=0, num=None, **kwargs):\n    res = [[e["value"], e["timestamp"]] for e in Table.find({"name":name, "timestamp":{"$gte":start_ts}})]\n    if num:res=res[:num]\n    return res\n\ndef sd(name, *args, **kwargs):\n    d = get(name)\n    return calculate_sd_snap(d)\n\ndef mean(name, *args, **kwargs):\n    d = get(name)\n    return calculate_mean_snap(d)\n\ndef sd_rolling(name, step, *args, **kwargs):\n    d = get(name)\n    return calculate_sd_rolling(d, step)\n\ndef mean_rolling(name,step, *args, **kwargs):\n    d = get(name)\n    return calculate_mean_rolling(d, step)\n\ndef dailychange(name, *args, **kwargs):\n    d = get(name)\n    data, ts = [e[0] for e in d], [e[1] for e in d]\n    data = [x - data[i-1] if i else None for i, x in enumerate(data)][1:]\n    return zip(data, ts[1:])\n\ndef ag_over_time(name, step, *args, **kwargs):\n    d = get(name)\n    data, ts = [e[0] for e in d], [e[1] for e in d]\n    data = [ [sum(data[i*step: (i+1)*step]), ts[(i+1)*step-1]] for i in range(len(data)/float(step)) ]\n    return data \n\ndef calculate_mean_snap(data):\n    d, ts = [e[0] for e in data], [e[1] for e in data]\n    d = np.array(d)\n    data = [[np.mean(d[:i]), ts[i-1]] for i in range(1,len(d)+1)]\n    return data\n\ndef calculate_sd_snap(data):\n    d, ts = [e[0] for e in data], [e[1] for e in data]\n    d = np.array(d)\n    data = [[np.std(d[:i]), ts[i-1]] for i in range(1,len(d)+1)]\n    return data\n\ndef calculate_mean_rolling(data, step):\n    data, ts = [e[0] for e in data], [e[1] for e in data]\n    data = np.mean(rolling_window(np.array(data), step), -1)\n    date = [[val, ts[index+step]] for (index, val) in enumerate(data)] \n    #data = [ [np.mean(np.array(data[i*step: (i+1)*step])), ts[(i+1)*step]] for i in range(len(data)/float(step)) ]\n    return data \n\ndef calculate_sd_rolling(data, step):\n    data, ts = [e[0] for e in data], [e[1] for e in data]\n    data = np.std(rolling_window(np.array(data), step), -1)\n    date = [[val, ts[index+step]] for (index, val) in enumerate(data)] \n    #data = [ [np.std(np.array(data[i*step: (i+1)*step])), ts[(i+1)*step]] for i in range(len(data)/float(step)) ]\n    return data\n\nFuncDict = {\n    \'get\': get,\n    \'sd\': sd,\n    \'mean\': mean,\n    \'sd_rolling\': sd_rolling,\n    \'mean_rolling\': mean_rolling,\n    \'dailychange\': dailychange,\n    \'ag_over_time\': ag_over_time,\n    \n}\n\nresponse._vars=response._caller(api)\n'
p7
sS'snapshot'
p8
(dp9
S'exception'
p10
(dp11
S'__getslice__'
p12
S"<method-wrapper '__getslice__' of exceptions.SyntaxError object>"
p13
sS'text'
p14
S"'    print **request.vars\\n'"
p15
sS'__str__'
p16
S"<method-wrapper '__str__' of exceptions.SyntaxError object>"
p17
sS'__reduce__'
p18
S'<built-in method __reduce__ of exceptions.SyntaxError object>'
p19
sS'__dict__'
p20
S'{}'
p21
sS'__sizeof__'
p22
S'<built-in method __sizeof__ of exceptions.SyntaxError object>'
p23
sS'__init__'
p24
S"<method-wrapper '__init__' of exceptions.SyntaxError object>"
p25
sS'__setattr__'
p26
S"<method-wrapper '__setattr__' of exceptions.SyntaxError object>"
p27
sS'__reduce_ex__'
p28
S'<built-in method __reduce_ex__ of exceptions.SyntaxError object>'
p29
sS'__new__'
p30
S'<built-in method __new__ of type object>'
p31
sS'__format__'
p32
S'<built-in method __format__ of exceptions.SyntaxError object>'
p33
sS'__class__'
p34
S"<type 'exceptions.SyntaxError'>"
p35
sS'filename'
p36
S"'/home/andromeda/work/graphing/web2py/applications/testtest/controllers/utils.py'"
p37
sS'lineno'
p38
S'28'
p39
sS'msg'
p40
S"'invalid syntax'"
p41
sS'__doc__'
p42
S"'Invalid syntax.'"
p43
sS'__getitem__'
p44
S"<method-wrapper '__getitem__' of exceptions.SyntaxError object>"
p45
sS'__setstate__'
p46
S'<built-in method __setstate__ of exceptions.SyntaxError object>'
p47
sS'__getattribute__'
p48
S"<method-wrapper '__getattribute__' of exceptions.SyntaxError object>"
p49
sS'print_file_and_line'
p50
S'None'
p51
sS'args'
p52
S"('invalid syntax', ('/home/andromeda/work/graphing/web2py/applications/testtest/controllers/utils.py', 28, 12, '    print **request.vars\\n'))"
p53
sS'__subclasshook__'
p54
S'<built-in method __subclasshook__ of type object>'
p55
sS'offset'
p56
S'12'
p57
sS'__unicode__'
p58
S'<built-in method __unicode__ of exceptions.SyntaxError object>'
p59
sS'__delattr__'
p60
S"<method-wrapper '__delattr__' of exceptions.SyntaxError object>"
p61
sS'__repr__'
p62
S"<method-wrapper '__repr__' of exceptions.SyntaxError object>"
p63
sS'__hash__'
p64
S"<method-wrapper '__hash__' of exceptions.SyntaxError object>"
p65
ssS'evalue'
p66
S'invalid syntax (utils.py, line 28)'
p67
sS'request'
p68
ccopy_reg
_reconstructor
p69
(cgluon.html
BEAUTIFY
p70
c__builtin__
object
p71
NtRp72
(dp73
S'attributes'
p74
(dp75
sS'components'
p76
(lp77
g69
(cgluon.html
TABLE
p78
g71
NtRp79
(dp80
g74
(dp81
S'level'
p82
I5
ssS'parent'
p83
Nsg76
(lp84
g69
(cgluon.html
TR
p85
g71
NtRp86
(dp87
g74
(dp88
sg83
g79
sg76
(lp89
g69
(cgluon.html
TD
p90
g71
NtRp91
(dp92
g74
(dp93
S'_style'
p94
S'font-weight:bold;vertical-align:top'
p95
ssg83
g86
sg76
(lp96
S'ajax'
p97
asbag69
(g90
g71
NtRp98
(dp99
g74
(dp100
S'_valign'
p101
S'top'
p102
ssg83
g86
sg76
(lp103
S':'
asbag69
(g90
g71
NtRp104
(dp105
g74
(dp106
sg83
g86
sg76
(lp107
g69
(g70
g71
NtRp108
(dp109
g74
(dp110
g82
I5
ssg83
g104
sg76
(lp111
S'True'
p112
asbasbasbag69
(g85
g71
NtRp113
(dp114
g74
(dp115
sg83
g79
sg76
(lp116
g69
(g90
g71
NtRp117
(dp118
g74
(dp119
g94
g95
ssg83
g113
sg76
(lp120
S'application'
p121
asbag69
(g90
g71
NtRp122
(dp123
g74
(dp124
g101
g102
ssg83
g113
sg76
(lp125
S':'
asbag69
(g90
g71
NtRp126
(dp127
g74
(dp128
sg83
g113
sg76
(lp129
g69
(g70
g71
NtRp130
(dp131
g74
(dp132
g82
I5
ssg83
g126
sg76
(lp133
S'testtest'
p134
asbasbasbag69
(g85
g71
NtRp135
(dp136
g74
(dp137
sg83
g79
sg76
(lp138
g69
(g90
g71
NtRp139
(dp140
g74
(dp141
g94
g95
ssg83
g135
sg76
(lp142
g52
asbag69
(g90
g71
NtRp143
(dp144
g74
(dp145
g101
g102
ssg83
g135
sg76
(lp146
S':'
asbag69
(g90
g71
NtRp147
(dp148
g74
(dp149
sg83
g135
sg76
(lp150
g69
(g70
g71
NtRp151
(dp152
g74
(dp153
g82
I5
ssg83
g147
sg76
(lp154
g69
(g78
g71
NtRp155
(dp156
g74
(dp157
g82
I4
ssg83
Nsg76
(lp158
sbasbasbasbag69
(g85
g71
NtRp159
(dp160
g74
(dp161
sg83
g79
sg76
(lp162
g69
(g90
g71
NtRp163
(dp164
g74
(dp165
g94
g95
ssg83
g159
sg76
(lp166
S'body'
p167
asbag69
(g90
g71
NtRp168
(dp169
g74
(dp170
g101
g102
ssg83
g159
sg76
(lp171
S':'
asbag69
(g90
g71
NtRp172
(dp173
g74
(dp174
sg83
g159
sg76
(lp175
g69
(g70
g71
NtRp176
(dp177
g74
(dp178
g82
I5
ssg83
g172
sg76
(lp179
S'<cStringIO.StringO object at 0x42ccbc8>'
p180
asbasbasbag69
(g85
g71
NtRp181
(dp182
g74
(dp183
sg83
g79
sg76
(lp184
g69
(g90
g71
NtRp185
(dp186
g74
(dp187
g94
g95
ssg83
g181
sg76
(lp188
S'client'
p189
asbag69
(g90
g71
NtRp190
(dp191
g74
(dp192
g101
g102
ssg83
g181
sg76
(lp193
S':'
asbag69
(g90
g71
NtRp194
(dp195
g74
(dp196
sg83
g181
sg76
(lp197
g69
(g70
g71
NtRp198
(dp199
g74
(dp200
g82
I5
ssg83
g194
sg76
(lp201
S'127.0.0.1'
p202
asbasbasbag69
(g85
g71
NtRp203
(dp204
g74
(dp205
sg83
g79
sg76
(lp206
g69
(g90
g71
NtRp207
(dp208
g74
(dp209
g94
g95
ssg83
g203
sg76
(lp210
S'controller'
p211
asbag69
(g90
g71
NtRp212
(dp213
g74
(dp214
g101
g102
ssg83
g203
sg76
(lp215
S':'
asbag69
(g90
g71
NtRp216
(dp217
g74
(dp218
sg83
g203
sg76
(lp219
g69
(g70
g71
NtRp220
(dp221
g74
(dp222
g82
I5
ssg83
g216
sg76
(lp223
S'utils'
p224
asbasbasbag69
(g85
g71
NtRp225
(dp226
g74
(dp227
sg83
g79
sg76
(lp228
g69
(g90
g71
NtRp229
(dp230
g74
(dp231
g94
g95
ssg83
g225
sg76
(lp232
S'cookies'
p233
asbag69
(g90
g71
NtRp234
(dp235
g74
(dp236
g101
g102
ssg83
g225
sg76
(lp237
S':'
asbag69
(g90
g71
NtRp238
(dp239
g74
(dp240
sg83
g225
sg76
(lp241
g69
(g70
g71
NtRp242
(dp243
g74
(dp244
g82
I5
ssg83
g238
sg76
(lp245
g69
(g78
g71
NtRp246
(dp247
g74
(dp248
g82
I4
ssg83
Nsg76
(lp249
g69
(g85
g71
NtRp250
(dp251
g74
(dp252
sg83
g246
sg76
(lp253
g69
(g90
g71
NtRp254
(dp255
g74
(dp256
g94
g95
ssg83
g250
sg76
(lp257
S'session_id_admin'
p258
asbag69
(g90
g71
NtRp259
(dp260
g74
(dp261
g101
g102
ssg83
g250
sg76
(lp262
S':'
asbag69
(g90
g71
NtRp263
(dp264
g74
(dp265
sg83
g250
sg76
(lp266
g69
(g70
g71
NtRp267
(dp268
g74
(dp269
g82
I4
ssg83
g263
sg76
(lp270
g69
(g78
g71
NtRp271
(dp272
g74
(dp273
g82
I3
ssg83
Nsg76
(lp274
g69
(g85
g71
NtRp275
(dp276
g74
(dp277
sg83
g271
sg76
(lp278
g69
(g90
g71
NtRp279
(dp280
g74
(dp281
g94
g95
ssg83
g275
sg76
(lp282
S'comment'
p283
asbag69
(g90
g71
NtRp284
(dp285
g74
(dp286
g101
g102
ssg83
g275
sg76
(lp287
S':'
asbag69
(g90
g71
NtRp288
(dp289
g74
(dp290
sg83
g275
sg76
(lp291
g69
(g70
g71
NtRp292
(dp293
g74
(dp294
g82
I3
ssg83
g288
sg76
(lp295
S''
asbasbasbag69
(g85
g71
NtRp296
(dp297
g74
(dp298
sg83
g271
sg76
(lp299
g69
(g90
g71
NtRp300
(dp301
g74
(dp302
g94
g95
ssg83
g296
sg76
(lp303
S'domain'
p304
asbag69
(g90
g71
NtRp305
(dp306
g74
(dp307
g101
g102
ssg83
g296
sg76
(lp308
S':'
asbag69
(g90
g71
NtRp309
(dp310
g74
(dp311
sg83
g296
sg76
(lp312
g69
(g70
g71
NtRp313
(dp314
g74
(dp315
g82
I3
ssg83
g309
sg76
(lp316
S''
asbasbasbag69
(g85
g71
NtRp317
(dp318
g74
(dp319
sg83
g271
sg76
(lp320
g69
(g90
g71
NtRp321
(dp322
g74
(dp323
g94
g95
ssg83
g317
sg76
(lp324
S'expires'
p325
asbag69
(g90
g71
NtRp326
(dp327
g74
(dp328
g101
g102
ssg83
g317
sg76
(lp329
S':'
asbag69
(g90
g71
NtRp330
(dp331
g74
(dp332
sg83
g317
sg76
(lp333
g69
(g70
g71
NtRp334
(dp335
g74
(dp336
g82
I3
ssg83
g330
sg76
(lp337
S''
asbasbasbag69
(g85
g71
NtRp338
(dp339
g74
(dp340
sg83
g271
sg76
(lp341
g69
(g90
g71
NtRp342
(dp343
g74
(dp344
g94
g95
ssg83
g338
sg76
(lp345
S'httponly'
p346
asbag69
(g90
g71
NtRp347
(dp348
g74
(dp349
g101
g102
ssg83
g338
sg76
(lp350
S':'
asbag69
(g90
g71
NtRp351
(dp352
g74
(dp353
sg83
g338
sg76
(lp354
g69
(g70
g71
NtRp355
(dp356
g74
(dp357
g82
I3
ssg83
g351
sg76
(lp358
S''
asbasbasbag69
(g85
g71
NtRp359
(dp360
g74
(dp361
sg83
g271
sg76
(lp362
g69
(g90
g71
NtRp363
(dp364
g74
(dp365
g94
g95
ssg83
g359
sg76
(lp366
S'max-age'
p367
asbag69
(g90
g71
NtRp368
(dp369
g74
(dp370
g101
g102
ssg83
g359
sg76
(lp371
S':'
asbag69
(g90
g71
NtRp372
(dp373
g74
(dp374
sg83
g359
sg76
(lp375
g69
(g70
g71
NtRp376
(dp377
g74
(dp378
g82
I3
ssg83
g372
sg76
(lp379
S''
asbasbasbag69
(g85
g71
NtRp380
(dp381
g74
(dp382
sg83
g271
sg76
(lp383
g69
(g90
g71
NtRp384
(dp385
g74
(dp386
g94
g95
ssg83
g380
sg76
(lp387
S'path'
p388
asbag69
(g90
g71
NtRp389
(dp390
g74
(dp391
g101
g102
ssg83
g380
sg76
(lp392
S':'
asbag69
(g90
g71
NtRp393
(dp394
g74
(dp395
sg83
g380
sg76
(lp396
g69
(g70
g71
NtRp397
(dp398
g74
(dp399
g82
I3
ssg83
g393
sg76
(lp400
S''
asbasbasbag69
(g85
g71
NtRp401
(dp402
g74
(dp403
sg83
g271
sg76
(lp404
g69
(g90
g71
NtRp405
(dp406
g74
(dp407
g94
g95
ssg83
g401
sg76
(lp408
S'secure'
p409
asbag69
(g90
g71
NtRp410
(dp411
g74
(dp412
g101
g102
ssg83
g401
sg76
(lp413
S':'
asbag69
(g90
g71
NtRp414
(dp415
g74
(dp416
sg83
g401
sg76
(lp417
g69
(g70
g71
NtRp418
(dp419
g74
(dp420
g82
I3
ssg83
g414
sg76
(lp421
S''
asbasbasbag69
(g85
g71
NtRp422
(dp423
g74
(dp424
sg83
g271
sg76
(lp425
g69
(g90
g71
NtRp426
(dp427
g74
(dp428
g94
g95
ssg83
g422
sg76
(lp429
S'version'
p430
asbag69
(g90
g71
NtRp431
(dp432
g74
(dp433
g101
g102
ssg83
g422
sg76
(lp434
S':'
asbag69
(g90
g71
NtRp435
(dp436
g74
(dp437
sg83
g422
sg76
(lp438
g69
(g70
g71
NtRp439
(dp440
g74
(dp441
g82
I3
ssg83
g435
sg76
(lp442
S''
asbasbasbasbasbasbasbag69
(g85
g71
NtRp443
(dp444
g74
(dp445
sg83
g246
sg76
(lp446
g69
(g90
g71
NtRp447
(dp448
g74
(dp449
g94
g95
ssg83
g443
sg76
(lp450
S'session_id_testtest'
p451
asbag69
(g90
g71
NtRp452
(dp453
g74
(dp454
g101
g102
ssg83
g443
sg76
(lp455
S':'
asbag69
(g90
g71
NtRp456
(dp457
g74
(dp458
sg83
g443
sg76
(lp459
g69
(g70
g71
NtRp460
(dp461
g74
(dp462
g82
I4
ssg83
g456
sg76
(lp463
g69
(g78
g71
NtRp464
(dp465
g74
(dp466
g82
I3
ssg83
Nsg76
(lp467
g69
(g85
g71
NtRp468
(dp469
g74
(dp470
sg83
g464
sg76
(lp471
g69
(g90
g71
NtRp472
(dp473
g74
(dp474
g94
g95
ssg83
g468
sg76
(lp475
g283
asbag69
(g90
g71
NtRp476
(dp477
g74
(dp478
g101
g102
ssg83
g468
sg76
(lp479
S':'
asbag69
(g90
g71
NtRp480
(dp481
g74
(dp482
sg83
g468
sg76
(lp483
g69
(g70
g71
NtRp484
(dp485
g74
(dp486
g82
I3
ssg83
g480
sg76
(lp487
S''
asbasbasbag69
(g85
g71
NtRp488
(dp489
g74
(dp490
sg83
g464
sg76
(lp491
g69
(g90
g71
NtRp492
(dp493
g74
(dp494
g94
g95
ssg83
g488
sg76
(lp495
g304
asbag69
(g90
g71
NtRp496
(dp497
g74
(dp498
g101
g102
ssg83
g488
sg76
(lp499
S':'
asbag69
(g90
g71
NtRp500
(dp501
g74
(dp502
sg83
g488
sg76
(lp503
g69
(g70
g71
NtRp504
(dp505
g74
(dp506
g82
I3
ssg83
g500
sg76
(lp507
S''
asbasbasbag69
(g85
g71
NtRp508
(dp509
g74
(dp510
sg83
g464
sg76
(lp511
g69
(g90
g71
NtRp512
(dp513
g74
(dp514
g94
g95
ssg83
g508
sg76
(lp515
g325
asbag69
(g90
g71
NtRp516
(dp517
g74
(dp518
g101
g102
ssg83
g508
sg76
(lp519
S':'
asbag69
(g90
g71
NtRp520
(dp521
g74
(dp522
sg83
g508
sg76
(lp523
g69
(g70
g71
NtRp524
(dp525
g74
(dp526
g82
I3
ssg83
g520
sg76
(lp527
S''
asbasbasbag69
(g85
g71
NtRp528
(dp529
g74
(dp530
sg83
g464
sg76
(lp531
g69
(g90
g71
NtRp532
(dp533
g74
(dp534
g94
g95
ssg83
g528
sg76
(lp535
g346
asbag69
(g90
g71
NtRp536
(dp537
g74
(dp538
g101
g102
ssg83
g528
sg76
(lp539
S':'
asbag69
(g90
g71
NtRp540
(dp541
g74
(dp542
sg83
g528
sg76
(lp543
g69
(g70
g71
NtRp544
(dp545
g74
(dp546
g82
I3
ssg83
g540
sg76
(lp547
S''
asbasbasbag69
(g85
g71
NtRp548
(dp549
g74
(dp550
sg83
g464
sg76
(lp551
g69
(g90
g71
NtRp552
(dp553
g74
(dp554
g94
g95
ssg83
g548
sg76
(lp555
g367
asbag69
(g90
g71
NtRp556
(dp557
g74
(dp558
g101
g102
ssg83
g548
sg76
(lp559
S':'
asbag69
(g90
g71
NtRp560
(dp561
g74
(dp562
sg83
g548
sg76
(lp563
g69
(g70
g71
NtRp564
(dp565
g74
(dp566
g82
I3
ssg83
g560
sg76
(lp567
S''
asbasbasbag69
(g85
g71
NtRp568
(dp569
g74
(dp570
sg83
g464
sg76
(lp571
g69
(g90
g71
NtRp572
(dp573
g74
(dp574
g94
g95
ssg83
g568
sg76
(lp575
g388
asbag69
(g90
g71
NtRp576
(dp577
g74
(dp578
g101
g102
ssg83
g568
sg76
(lp579
S':'
asbag69
(g90
g71
NtRp580
(dp581
g74
(dp582
sg83
g568
sg76
(lp583
g69
(g70
g71
NtRp584
(dp585
g74
(dp586
g82
I3
ssg83
g580
sg76
(lp587
S''
asbasbasbag69
(g85
g71
NtRp588
(dp589
g74
(dp590
sg83
g464
sg76
(lp591
g69
(g90
g71
NtRp592
(dp593
g74
(dp594
g94
g95
ssg83
g588
sg76
(lp595
g409
asbag69
(g90
g71
NtRp596
(dp597
g74
(dp598
g101
g102
ssg83
g588
sg76
(lp599
S':'
asbag69
(g90
g71
NtRp600
(dp601
g74
(dp602
sg83
g588
sg76
(lp603
g69
(g70
g71
NtRp604
(dp605
g74
(dp606
g82
I3
ssg83
g600
sg76
(lp607
S''
asbasbasbag69
(g85
g71
NtRp608
(dp609
g74
(dp610
sg83
g464
sg76
(lp611
g69
(g90
g71
NtRp612
(dp613
g74
(dp614
g94
g95
ssg83
g608
sg76
(lp615
g430
asbag69
(g90
g71
NtRp616
(dp617
g74
(dp618
g101
g102
ssg83
g608
sg76
(lp619
S':'
asbag69
(g90
g71
NtRp620
(dp621
g74
(dp622
sg83
g608
sg76
(lp623
g69
(g70
g71
NtRp624
(dp625
g74
(dp626
g82
I3
ssg83
g620
sg76
(lp627
S''
asbasbasbasbasbasbasbag69
(g85
g71
NtRp628
(dp629
g74
(dp630
sg83
g246
sg76
(lp631
g69
(g90
g71
NtRp632
(dp633
g74
(dp634
g94
g95
ssg83
g628
sg76
(lp635
S'session_id_welcome'
p636
asbag69
(g90
g71
NtRp637
(dp638
g74
(dp639
g101
g102
ssg83
g628
sg76
(lp640
S':'
asbag69
(g90
g71
NtRp641
(dp642
g74
(dp643
sg83
g628
sg76
(lp644
g69
(g70
g71
NtRp645
(dp646
g74
(dp647
g82
I4
ssg83
g641
sg76
(lp648
g69
(g78
g71
NtRp649
(dp650
g74
(dp651
g82
I3
ssg83
Nsg76
(lp652
g69
(g85
g71
NtRp653
(dp654
g74
(dp655
sg83
g649
sg76
(lp656
g69
(g90
g71
NtRp657
(dp658
g74
(dp659
g94
g95
ssg83
g653
sg76
(lp660
g283
asbag69
(g90
g71
NtRp661
(dp662
g74
(dp663
g101
g102
ssg83
g653
sg76
(lp664
S':'
asbag69
(g90
g71
NtRp665
(dp666
g74
(dp667
sg83
g653
sg76
(lp668
g69
(g70
g71
NtRp669
(dp670
g74
(dp671
g82
I3
ssg83
g665
sg76
(lp672
S''
asbasbasbag69
(g85
g71
NtRp673
(dp674
g74
(dp675
sg83
g649
sg76
(lp676
g69
(g90
g71
NtRp677
(dp678
g74
(dp679
g94
g95
ssg83
g673
sg76
(lp680
g304
asbag69
(g90
g71
NtRp681
(dp682
g74
(dp683
g101
g102
ssg83
g673
sg76
(lp684
S':'
asbag69
(g90
g71
NtRp685
(dp686
g74
(dp687
sg83
g673
sg76
(lp688
g69
(g70
g71
NtRp689
(dp690
g74
(dp691
g82
I3
ssg83
g685
sg76
(lp692
S''
asbasbasbag69
(g85
g71
NtRp693
(dp694
g74
(dp695
sg83
g649
sg76
(lp696
g69
(g90
g71
NtRp697
(dp698
g74
(dp699
g94
g95
ssg83
g693
sg76
(lp700
g325
asbag69
(g90
g71
NtRp701
(dp702
g74
(dp703
g101
g102
ssg83
g693
sg76
(lp704
S':'
asbag69
(g90
g71
NtRp705
(dp706
g74
(dp707
sg83
g693
sg76
(lp708
g69
(g70
g71
NtRp709
(dp710
g74
(dp711
g82
I3
ssg83
g705
sg76
(lp712
S''
asbasbasbag69
(g85
g71
NtRp713
(dp714
g74
(dp715
sg83
g649
sg76
(lp716
g69
(g90
g71
NtRp717
(dp718
g74
(dp719
g94
g95
ssg83
g713
sg76
(lp720
g346
asbag69
(g90
g71
NtRp721
(dp722
g74
(dp723
g101
g102
ssg83
g713
sg76
(lp724
S':'
asbag69
(g90
g71
NtRp725
(dp726
g74
(dp727
sg83
g713
sg76
(lp728
g69
(g70
g71
NtRp729
(dp730
g74
(dp731
g82
I3
ssg83
g725
sg76
(lp732
S''
asbasbasbag69
(g85
g71
NtRp733
(dp734
g74
(dp735
sg83
g649
sg76
(lp736
g69
(g90
g71
NtRp737
(dp738
g74
(dp739
g94
g95
ssg83
g733
sg76
(lp740
g367
asbag69
(g90
g71
NtRp741
(dp742
g74
(dp743
g101
g102
ssg83
g733
sg76
(lp744
S':'
asbag69
(g90
g71
NtRp745
(dp746
g74
(dp747
sg83
g733
sg76
(lp748
g69
(g70
g71
NtRp749
(dp750
g74
(dp751
g82
I3
ssg83
g745
sg76
(lp752
S''
asbasbasbag69
(g85
g71
NtRp753
(dp754
g74
(dp755
sg83
g649
sg76
(lp756
g69
(g90
g71
NtRp757
(dp758
g74
(dp759
g94
g95
ssg83
g753
sg76
(lp760
g388
asbag69
(g90
g71
NtRp761
(dp762
g74
(dp763
g101
g102
ssg83
g753
sg76
(lp764
S':'
asbag69
(g90
g71
NtRp765
(dp766
g74
(dp767
sg83
g753
sg76
(lp768
g69
(g70
g71
NtRp769
(dp770
g74
(dp771
g82
I3
ssg83
g765
sg76
(lp772
S''
asbasbasbag69
(g85
g71
NtRp773
(dp774
g74
(dp775
sg83
g649
sg76
(lp776
g69
(g90
g71
NtRp777
(dp778
g74
(dp779
g94
g95
ssg83
g773
sg76
(lp780
g409
asbag69
(g90
g71
NtRp781
(dp782
g74
(dp783
g101
g102
ssg83
g773
sg76
(lp784
S':'
asbag69
(g90
g71
NtRp785
(dp786
g74
(dp787
sg83
g773
sg76
(lp788
g69
(g70
g71
NtRp789
(dp790
g74
(dp791
g82
I3
ssg83
g785
sg76
(lp792
S''
asbasbasbag69
(g85
g71
NtRp793
(dp794
g74
(dp795
sg83
g649
sg76
(lp796
g69
(g90
g71
NtRp797
(dp798
g74
(dp799
g94
g95
ssg83
g793
sg76
(lp800
g430
asbag69
(g90
g71
NtRp801
(dp802
g74
(dp803
g101
g102
ssg83
g793
sg76
(lp804
S':'
asbag69
(g90
g71
NtRp805
(dp806
g74
(dp807
sg83
g793
sg76
(lp808
g69
(g70
g71
NtRp809
(dp810
g74
(dp811
g82
I3
ssg83
g805
sg76
(lp812
S''
asbasbasbasbasbasbasbasbasbasbasbag69
(g85
g71
NtRp813
(dp814
g74
(dp815
sg83
g79
sg76
(lp816
g69
(g90
g71
NtRp817
(dp818
g74
(dp819
g94
g95
ssg83
g813
sg76
(lp820
S'env'
p821
asbag69
(g90
g71
NtRp822
(dp823
g74
(dp824
g101
g102
ssg83
g813
sg76
(lp825
S':'
asbag69
(g90
g71
NtRp826
(dp827
g74
(dp828
sg83
g813
sg76
(lp829
g69
(g70
g71
NtRp830
(dp831
g74
(dp832
g82
I5
ssg83
g826
sg76
(lp833
g69
(g78
g71
NtRp834
(dp835
g74
(dp836
g82
I4
ssg83
Nsg76
(lp837
g69
(g85
g71
NtRp838
(dp839
g74
(dp840
sg83
g834
sg76
(lp841
g69
(g90
g71
NtRp842
(dp843
g74
(dp844
g94
g95
ssg83
g838
sg76
(lp845
S'app_folders'
p846
asbag69
(g90
g71
NtRp847
(dp848
g74
(dp849
g101
g102
ssg83
g838
sg76
(lp850
S':'
asbag69
(g90
g71
NtRp851
(dp852
g74
(dp853
sg83
g838
sg76
(lp854
g69
(g70
g71
NtRp855
(dp856
g74
(dp857
g82
I4
ssg83
g851
sg76
(lp858
S"set(['/home/andromeda/work/graphing/web2py/applications/testtest/', '/home/andromeda/work/graphing/web2py/applications/admin/', '/home/andromeda/work/graphing/web2py/applications/welcome/', '/home/andromeda/work/graphing/web2py/applications/examples/'])"
p859
asbasbasbag69
(g85
g71
NtRp860
(dp861
g74
(dp862
sg83
g834
sg76
(lp863
g69
(g90
g71
NtRp864
(dp865
g74
(dp866
g94
g95
ssg83
g860
sg76
(lp867
S'applications_parent'
p868
asbag69
(g90
g71
NtRp869
(dp870
g74
(dp871
g101
g102
ssg83
g860
sg76
(lp872
S':'
asbag69
(g90
g71
NtRp873
(dp874
g74
(dp875
sg83
g860
sg76
(lp876
g69
(g70
g71
NtRp877
(dp878
g74
(dp879
g82
I4
ssg83
g873
sg76
(lp880
S'/home/andromeda/work/graphing/web2py'
p881
asbasbasbag69
(g85
g71
NtRp882
(dp883
g74
(dp884
sg83
g834
sg76
(lp885
g69
(g90
g71
NtRp886
(dp887
g74
(dp888
g94
g95
ssg83
g882
sg76
(lp889
S'cmd_args'
p890
asbag69
(g90
g71
NtRp891
(dp892
g74
(dp893
g101
g102
ssg83
g882
sg76
(lp894
S':'
asbag69
(g90
g71
NtRp895
(dp896
g74
(dp897
sg83
g882
sg76
(lp898
g69
(g70
g71
NtRp899
(dp900
g74
(dp901
g82
I4
ssg83
g895
sg76
(lp902
g69
(g78
g71
NtRp903
(dp904
g74
(dp905
g82
I3
ssg83
Nsg76
(lp906
sbasbasbasbag69
(g85
g71
NtRp907
(dp908
g74
(dp909
sg83
g834
sg76
(lp910
g69
(g90
g71
NtRp911
(dp912
g74
(dp913
g94
g95
ssg83
g907
sg76
(lp914
S'cmd_options'
p915
asbag69
(g90
g71
NtRp916
(dp917
g74
(dp918
g101
g102
ssg83
g907
sg76
(lp919
S':'
asbag69
(g90
g71
NtRp920
(dp921
g74
(dp922
sg83
g907
sg76
(lp923
g69
(g70
g71
NtRp924
(dp925
g74
(dp926
g82
I4
ssg83
g920
sg76
(lp927
S"<Values at 0x2a04758: {'verbose': False, 'ip': '127.0.0.1', 'shutdown_timeout': 5, 'taskbar': False, 'nocron': False, 'pid_filename': 'httpserver.pid', 'maxthreads': None, 'softcron': False, 'server_name': 'andromeda-desktop', 'bpython': False, 'nogui': False, 'port': 8000, 'extcron': False, 'debuglevel': 30, 'test': None, 'folder': '/home/andromeda/work/graphing/web2py', 'config': '', 'import_models': False, 'winservice': '', 'shell': None, 'run': '', 'log_filename': 'httpserver.log', 'args': [''], 'socket_timeout': 1, 'ssl_ca_certificate': None, 'scheduler': None, 'profiler_filename': None, 'ssl_private_key': '', 'password': 'cookie', 'request_queue_size': 5, 'ssl_certificate': '', 'cronjob': False, 'numthreads': None, 'quiet': False, 'interfaces': None, 'minthreads': None, 'timeout': 10, 'plain': False, 'nobanner': False}>"
p928
asbasbasbag69
(g85
g71
NtRp929
(dp930
g74
(dp931
sg83
g834
sg76
(lp932
g69
(g90
g71
NtRp933
(dp934
g74
(dp935
g94
g95
ssg83
g929
sg76
(lp936
S'db_sessions'
p937
asbag69
(g90
g71
NtRp938
(dp939
g74
(dp940
g101
g102
ssg83
g929
sg76
(lp941
S':'
asbag69
(g90
g71
NtRp942
(dp943
g74
(dp944
sg83
g929
sg76
(lp945
g69
(g70
g71
NtRp946
(dp947
g74
(dp948
g82
I4
ssg83
g942
sg76
(lp949
S'set([])'
p950
asbasbasbag69
(g85
g71
NtRp951
(dp952
g74
(dp953
sg83
g834
sg76
(lp954
g69
(g90
g71
NtRp955
(dp956
g74
(dp957
g94
g95
ssg83
g951
sg76
(lp958
S'debugging'
p959
asbag69
(g90
g71
NtRp960
(dp961
g74
(dp962
g101
g102
ssg83
g951
sg76
(lp963
S':'
asbag69
(g90
g71
NtRp964
(dp965
g74
(dp966
sg83
g951
sg76
(lp967
g69
(g70
g71
NtRp968
(dp969
g74
(dp970
g82
I4
ssg83
g964
sg76
(lp971
S'False'
p972
asbasbasbag69
(g85
g71
NtRp973
(dp974
g74
(dp975
sg83
g834
sg76
(lp976
g69
(g90
g71
NtRp977
(dp978
g74
(dp979
g94
g95
ssg83
g973
sg76
(lp980
S'gluon_parent'
p981
asbag69
(g90
g71
NtRp982
(dp983
g74
(dp984
g101
g102
ssg83
g973
sg76
(lp985
S':'
asbag69
(g90
g71
NtRp986
(dp987
g74
(dp988
sg83
g973
sg76
(lp989
g69
(g70
g71
NtRp990
(dp991
g74
(dp992
g82
I4
ssg83
g986
sg76
(lp993
S'/home/andromeda/work/graphing/web2py'
p994
asbasbasbag69
(g85
g71
NtRp995
(dp996
g74
(dp997
sg83
g834
sg76
(lp998
g69
(g90
g71
NtRp999
(dp1000
g74
(dp1001
g94
g95
ssg83
g995
sg76
(lp1002
S'http_accept'
p1003
asbag69
(g90
g71
NtRp1004
(dp1005
g74
(dp1006
g101
g102
ssg83
g995
sg76
(lp1007
S':'
asbag69
(g90
g71
NtRp1008
(dp1009
g74
(dp1010
sg83
g995
sg76
(lp1011
g69
(g70
g71
NtRp1012
(dp1013
g74
(dp1014
g82
I4
ssg83
g1008
sg76
(lp1015
S'*/*'
p1016
asbasbasbag69
(g85
g71
NtRp1017
(dp1018
g74
(dp1019
sg83
g834
sg76
(lp1020
g69
(g90
g71
NtRp1021
(dp1022
g74
(dp1023
g94
g95
ssg83
g1017
sg76
(lp1024
S'http_accept_charset'
p1025
asbag69
(g90
g71
NtRp1026
(dp1027
g74
(dp1028
g101
g102
ssg83
g1017
sg76
(lp1029
S':'
asbag69
(g90
g71
NtRp1030
(dp1031
g74
(dp1032
sg83
g1017
sg76
(lp1033
g69
(g70
g71
NtRp1034
(dp1035
g74
(dp1036
g82
I4
ssg83
g1030
sg76
(lp1037
S'ISO-8859-1,utf-8;q=0.7,*;q=0.3'
p1038
asbasbasbag69
(g85
g71
NtRp1039
(dp1040
g74
(dp1041
sg83
g834
sg76
(lp1042
g69
(g90
g71
NtRp1043
(dp1044
g74
(dp1045
g94
g95
ssg83
g1039
sg76
(lp1046
S'http_accept_encoding'
p1047
asbag69
(g90
g71
NtRp1048
(dp1049
g74
(dp1050
g101
g102
ssg83
g1039
sg76
(lp1051
S':'
asbag69
(g90
g71
NtRp1052
(dp1053
g74
(dp1054
sg83
g1039
sg76
(lp1055
g69
(g70
g71
NtRp1056
(dp1057
g74
(dp1058
g82
I4
ssg83
g1052
sg76
(lp1059
S'gzip,deflate,sdch'
p1060
asbasbasbag69
(g85
g71
NtRp1061
(dp1062
g74
(dp1063
sg83
g834
sg76
(lp1064
g69
(g90
g71
NtRp1065
(dp1066
g74
(dp1067
g94
g95
ssg83
g1061
sg76
(lp1068
S'http_accept_language'
p1069
asbag69
(g90
g71
NtRp1070
(dp1071
g74
(dp1072
g101
g102
ssg83
g1061
sg76
(lp1073
S':'
asbag69
(g90
g71
NtRp1074
(dp1075
g74
(dp1076
sg83
g1061
sg76
(lp1077
g69
(g70
g71
NtRp1078
(dp1079
g74
(dp1080
g82
I4
ssg83
g1074
sg76
(lp1081
S'en-US,en;q=0.8'
p1082
asbasbasbag69
(g85
g71
NtRp1083
(dp1084
g74
(dp1085
sg83
g834
sg76
(lp1086
g69
(g90
g71
NtRp1087
(dp1088
g74
(dp1089
g94
g95
ssg83
g1083
sg76
(lp1090
S'http_connection'
p1091
asbag69
(g90
g71
NtRp1092
(dp1093
g74
(dp1094
g101
g102
ssg83
g1083
sg76
(lp1095
S':'
asbag69
(g90
g71
NtRp1096
(dp1097
g74
(dp1098
sg83
g1083
sg76
(lp1099
g69
(g70
g71
NtRp1100
(dp1101
g74
(dp1102
g82
I4
ssg83
g1096
sg76
(lp1103
S'keep-alive'
p1104
asbasbasbag69
(g85
g71
NtRp1105
(dp1106
g74
(dp1107
sg83
g834
sg76
(lp1108
g69
(g90
g71
NtRp1109
(dp1110
g74
(dp1111
g94
g95
ssg83
g1105
sg76
(lp1112
S'http_cookie'
p1113
asbag69
(g90
g71
NtRp1114
(dp1115
g74
(dp1116
g101
g102
ssg83
g1105
sg76
(lp1117
S':'
asbag69
(g90
g71
NtRp1118
(dp1119
g74
(dp1120
sg83
g1105
sg76
(lp1121
g69
(g70
g71
NtRp1122
(dp1123
g74
(dp1124
g82
I4
ssg83
g1118
sg76
(lp1125
S'session_id_welcome=127.0.0.1-8087dfde-bdcf-478d-b614-4def092a2942; session_id_admin=127.0.0.1-425e8444-a969-4d38-8153-c1a5b81e95e6; session_id_testtest=127.0.0.1-4ad632aa-8339-462d-96fe-1d877bdde192'
p1126
asbasbasbag69
(g85
g71
NtRp1127
(dp1128
g74
(dp1129
sg83
g834
sg76
(lp1130
g69
(g90
g71
NtRp1131
(dp1132
g74
(dp1133
g94
g95
ssg83
g1127
sg76
(lp1134
S'http_host'
p1135
asbag69
(g90
g71
NtRp1136
(dp1137
g74
(dp1138
g101
g102
ssg83
g1127
sg76
(lp1139
S':'
asbag69
(g90
g71
NtRp1140
(dp1141
g74
(dp1142
sg83
g1127
sg76
(lp1143
g69
(g70
g71
NtRp1144
(dp1145
g74
(dp1146
g82
I4
ssg83
g1140
sg76
(lp1147
S'127.0.0.1:8000'
p1148
asbasbasbag69
(g85
g71
NtRp1149
(dp1150
g74
(dp1151
sg83
g834
sg76
(lp1152
g69
(g90
g71
NtRp1153
(dp1154
g74
(dp1155
g94
g95
ssg83
g1149
sg76
(lp1156
S'http_referer'
p1157
asbag69
(g90
g71
NtRp1158
(dp1159
g74
(dp1160
g101
g102
ssg83
g1149
sg76
(lp1161
S':'
asbag69
(g90
g71
NtRp1162
(dp1163
g74
(dp1164
sg83
g1149
sg76
(lp1165
g69
(g70
g71
NtRp1166
(dp1167
g74
(dp1168
g82
I4
ssg83
g1162
sg76
(lp1169
S'http://127.0.0.1:8000/testtest/utils/index'
p1170
asbasbasbag69
(g85
g71
NtRp1171
(dp1172
g74
(dp1173
sg83
g834
sg76
(lp1174
g69
(g90
g71
NtRp1175
(dp1176
g74
(dp1177
g94
g95
ssg83
g1171
sg76
(lp1178
S'http_user_agent'
p1179
asbag69
(g90
g71
NtRp1180
(dp1181
g74
(dp1182
g101
g102
ssg83
g1171
sg76
(lp1183
S':'
asbag69
(g90
g71
NtRp1184
(dp1185
g74
(dp1186
sg83
g1171
sg76
(lp1187
g69
(g70
g71
NtRp1188
(dp1189
g74
(dp1190
g82
I4
ssg83
g1184
sg76
(lp1191
S'Mozilla/5.0 (X11; Linux x86_64) AppleWebKit/535.11 (KHTML, like Gecko) Chrome/17.0.963.56 Safari/535.11'
p1192
asbasbasbag69
(g85
g71
NtRp1193
(dp1194
g74
(dp1195
sg83
g834
sg76
(lp1196
g69
(g90
g71
NtRp1197
(dp1198
g74
(dp1199
g94
g95
ssg83
g1193
sg76
(lp1200
S'http_x_requested_with'
p1201
asbag69
(g90
g71
NtRp1202
(dp1203
g74
(dp1204
g101
g102
ssg83
g1193
sg76
(lp1205
S':'
asbag69
(g90
g71
NtRp1206
(dp1207
g74
(dp1208
sg83
g1193
sg76
(lp1209
g69
(g70
g71
NtRp1210
(dp1211
g74
(dp1212
g82
I4
ssg83
g1206
sg76
(lp1213
S'XMLHttpRequest'
p1214
asbasbasbag69
(g85
g71
NtRp1215
(dp1216
g74
(dp1217
sg83
g834
sg76
(lp1218
g69
(g90
g71
NtRp1219
(dp1220
g74
(dp1221
g94
g95
ssg83
g1215
sg76
(lp1222
S'is_jython'
p1223
asbag69
(g90
g71
NtRp1224
(dp1225
g74
(dp1226
g101
g102
ssg83
g1215
sg76
(lp1227
S':'
asbag69
(g90
g71
NtRp1228
(dp1229
g74
(dp1230
sg83
g1215
sg76
(lp1231
g69
(g70
g71
NtRp1232
(dp1233
g74
(dp1234
g82
I4
ssg83
g1228
sg76
(lp1235
g972
asbasbasbag69
(g85
g71
NtRp1236
(dp1237
g74
(dp1238
sg83
g834
sg76
(lp1239
g69
(g90
g71
NtRp1240
(dp1241
g74
(dp1242
g94
g95
ssg83
g1236
sg76
(lp1243
S'is_pypy'
p1244
asbag69
(g90
g71
NtRp1245
(dp1246
g74
(dp1247
g101
g102
ssg83
g1236
sg76
(lp1248
S':'
asbag69
(g90
g71
NtRp1249
(dp1250
g74
(dp1251
sg83
g1236
sg76
(lp1252
g69
(g70
g71
NtRp1253
(dp1254
g74
(dp1255
g82
I4
ssg83
g1249
sg76
(lp1256
g972
asbasbasbag69
(g85
g71
NtRp1257
(dp1258
g74
(dp1259
sg83
g834
sg76
(lp1260
g69
(g90
g71
NtRp1261
(dp1262
g74
(dp1263
g94
g95
ssg83
g1257
sg76
(lp1264
S'path_info'
p1265
asbag69
(g90
g71
NtRp1266
(dp1267
g74
(dp1268
g101
g102
ssg83
g1257
sg76
(lp1269
S':'
asbag69
(g90
g71
NtRp1270
(dp1271
g74
(dp1272
sg83
g1257
sg76
(lp1273
g69
(g70
g71
NtRp1274
(dp1275
g74
(dp1276
g82
I4
ssg83
g1270
sg76
(lp1277
S'/testtest/utils/api'
p1278
asbasbasbag69
(g85
g71
NtRp1279
(dp1280
g74
(dp1281
sg83
g834
sg76
(lp1282
g69
(g90
g71
NtRp1283
(dp1284
g74
(dp1285
g94
g95
ssg83
g1279
sg76
(lp1286
S'query_string'
p1287
asbag69
(g90
g71
NtRp1288
(dp1289
g74
(dp1290
g101
g102
ssg83
g1279
sg76
(lp1291
S':'
asbag69
(g90
g71
NtRp1292
(dp1293
g74
(dp1294
sg83
g1279
sg76
(lp1295
g69
(g70
g71
NtRp1296
(dp1297
g74
(dp1298
g82
I4
ssg83
g1292
sg76
(lp1299
S'step=2&type=ag_over_time&name=EOI'
p1300
asbasbasbag69
(g85
g71
NtRp1301
(dp1302
g74
(dp1303
sg83
g834
sg76
(lp1304
g69
(g90
g71
NtRp1305
(dp1306
g74
(dp1307
g94
g95
ssg83
g1301
sg76
(lp1308
S'remote_addr'
p1309
asbag69
(g90
g71
NtRp1310
(dp1311
g74
(dp1312
g101
g102
ssg83
g1301
sg76
(lp1313
S':'
asbag69
(g90
g71
NtRp1314
(dp1315
g74
(dp1316
sg83
g1301
sg76
(lp1317
g69
(g70
g71
NtRp1318
(dp1319
g74
(dp1320
g82
I4
ssg83
g1314
sg76
(lp1321
g202
asbasbasbag69
(g85
g71
NtRp1322
(dp1323
g74
(dp1324
sg83
g834
sg76
(lp1325
g69
(g90
g71
NtRp1326
(dp1327
g74
(dp1328
g94
g95
ssg83
g1322
sg76
(lp1329
S'remote_port'
p1330
asbag69
(g90
g71
NtRp1331
(dp1332
g74
(dp1333
g101
g102
ssg83
g1322
sg76
(lp1334
S':'
asbag69
(g90
g71
NtRp1335
(dp1336
g74
(dp1337
sg83
g1322
sg76
(lp1338
g69
(g70
g71
NtRp1339
(dp1340
g74
(dp1341
g82
I4
ssg83
g1335
sg76
(lp1342
S'36581'
p1343
asbasbasbag69
(g85
g71
NtRp1344
(dp1345
g74
(dp1346
sg83
g834
sg76
(lp1347
g69
(g90
g71
NtRp1348
(dp1349
g74
(dp1350
g94
g95
ssg83
g1344
sg76
(lp1351
S'request_method'
p1352
asbag69
(g90
g71
NtRp1353
(dp1354
g74
(dp1355
g101
g102
ssg83
g1344
sg76
(lp1356
S':'
asbag69
(g90
g71
NtRp1357
(dp1358
g74
(dp1359
sg83
g1344
sg76
(lp1360
g69
(g70
g71
NtRp1361
(dp1362
g74
(dp1363
g82
I4
ssg83
g1357
sg76
(lp1364
S'GET'
p1365
asbasbasbag69
(g85
g71
NtRp1366
(dp1367
g74
(dp1368
sg83
g834
sg76
(lp1369
g69
(g90
g71
NtRp1370
(dp1371
g74
(dp1372
g94
g95
ssg83
g1366
sg76
(lp1373
S'script_name'
p1374
asbag69
(g90
g71
NtRp1375
(dp1376
g74
(dp1377
g101
g102
ssg83
g1366
sg76
(lp1378
S':'
asbag69
(g90
g71
NtRp1379
(dp1380
g74
(dp1381
sg83
g1366
sg76
(lp1382
g69
(g70
g71
NtRp1383
(dp1384
g74
(dp1385
g82
I4
ssg83
g1379
sg76
(lp1386
S''
asbasbasbag69
(g85
g71
NtRp1387
(dp1388
g74
(dp1389
sg83
g834
sg76
(lp1390
g69
(g90
g71
NtRp1391
(dp1392
g74
(dp1393
g94
g95
ssg83
g1387
sg76
(lp1394
S'server_name'
p1395
asbag69
(g90
g71
NtRp1396
(dp1397
g74
(dp1398
g101
g102
ssg83
g1387
sg76
(lp1399
S':'
asbag69
(g90
g71
NtRp1400
(dp1401
g74
(dp1402
sg83
g1387
sg76
(lp1403
g69
(g70
g71
NtRp1404
(dp1405
g74
(dp1406
g82
I4
ssg83
g1400
sg76
(lp1407
S'andromeda-desktop'
p1408
asbasbasbag69
(g85
g71
NtRp1409
(dp1410
g74
(dp1411
sg83
g834
sg76
(lp1412
g69
(g90
g71
NtRp1413
(dp1414
g74
(dp1415
g94
g95
ssg83
g1409
sg76
(lp1416
S'server_port'
p1417
asbag69
(g90
g71
NtRp1418
(dp1419
g74
(dp1420
g101
g102
ssg83
g1409
sg76
(lp1421
S':'
asbag69
(g90
g71
NtRp1422
(dp1423
g74
(dp1424
sg83
g1409
sg76
(lp1425
g69
(g70
g71
NtRp1426
(dp1427
g74
(dp1428
g82
I4
ssg83
g1422
sg76
(lp1429
S'8000'
p1430
asbasbasbag69
(g85
g71
NtRp1431
(dp1432
g74
(dp1433
sg83
g834
sg76
(lp1434
g69
(g90
g71
NtRp1435
(dp1436
g74
(dp1437
g94
g95
ssg83
g1431
sg76
(lp1438
S'server_protocol'
p1439
asbag69
(g90
g71
NtRp1440
(dp1441
g74
(dp1442
g101
g102
ssg83
g1431
sg76
(lp1443
S':'
asbag69
(g90
g71
NtRp1444
(dp1445
g74
(dp1446
sg83
g1431
sg76
(lp1447
g69
(g70
g71
NtRp1448
(dp1449
g74
(dp1450
g82
I4
ssg83
g1444
sg76
(lp1451
S'HTTP/1.1'
p1452
asbasbasbag69
(g85
g71
NtRp1453
(dp1454
g74
(dp1455
sg83
g834
sg76
(lp1456
g69
(g90
g71
NtRp1457
(dp1458
g74
(dp1459
g94
g95
ssg83
g1453
sg76
(lp1460
S'server_software'
p1461
asbag69
(g90
g71
NtRp1462
(dp1463
g74
(dp1464
g101
g102
ssg83
g1453
sg76
(lp1465
S':'
asbag69
(g90
g71
NtRp1466
(dp1467
g74
(dp1468
sg83
g1453
sg76
(lp1469
g69
(g70
g71
NtRp1470
(dp1471
g74
(dp1472
g82
I4
ssg83
g1466
sg76
(lp1473
S'Rocket 1.2.4'
p1474
asbasbasbag69
(g85
g71
NtRp1475
(dp1476
g74
(dp1477
sg83
g834
sg76
(lp1478
g69
(g90
g71
NtRp1479
(dp1480
g74
(dp1481
g94
g95
ssg83
g1475
sg76
(lp1482
S'web2py_crontype'
p1483
asbag69
(g90
g71
NtRp1484
(dp1485
g74
(dp1486
g101
g102
ssg83
g1475
sg76
(lp1487
S':'
asbag69
(g90
g71
NtRp1488
(dp1489
g74
(dp1490
sg83
g1475
sg76
(lp1491
g69
(g70
g71
NtRp1492
(dp1493
g74
(dp1494
g82
I4
ssg83
g1488
sg76
(lp1495
S'hard'
p1496
asbasbasbag69
(g85
g71
NtRp1497
(dp1498
g74
(dp1499
sg83
g834
sg76
(lp1500
g69
(g90
g71
NtRp1501
(dp1502
g74
(dp1503
g94
g95
ssg83
g1497
sg76
(lp1504
S'web2py_path'
p1505
asbag69
(g90
g71
NtRp1506
(dp1507
g74
(dp1508
g101
g102
ssg83
g1497
sg76
(lp1509
S':'
asbag69
(g90
g71
NtRp1510
(dp1511
g74
(dp1512
sg83
g1497
sg76
(lp1513
g69
(g70
g71
NtRp1514
(dp1515
g74
(dp1516
g82
I4
ssg83
g1510
sg76
(lp1517
g881
asbasbasbag69
(g85
g71
NtRp1518
(dp1519
g74
(dp1520
sg83
g834
sg76
(lp1521
g69
(g90
g71
NtRp1522
(dp1523
g74
(dp1524
g94
g95
ssg83
g1518
sg76
(lp1525
S'web2py_version'
p1526
asbag69
(g90
g71
NtRp1527
(dp1528
g74
(dp1529
g101
g102
ssg83
g1518
sg76
(lp1530
S':'
asbag69
(g90
g71
NtRp1531
(dp1532
g74
(dp1533
sg83
g1518
sg76
(lp1534
g69
(g70
g71
NtRp1535
(dp1536
g74
(dp1537
g82
I4
ssg83
g1531
sg76
(lp1538
g69
(g78
g71
NtRp1539
(dp1540
g74
(dp1541
g82
I3
ssg83
Nsg76
(lp1542
g69
(g85
g71
NtRp1543
(dp1544
g74
(dp1545
sg83
g1539
sg76
(lp1546
g69
(g90
g71
NtRp1547
(dp1548
g74
(dp1549
sg83
g1543
sg76
(lp1550
g69
(g70
g71
NtRp1551
(dp1552
g74
(dp1553
g82
I3
ssg83
g1547
sg76
(lp1554
S'1'
asbasbasbag69
(g85
g71
NtRp1555
(dp1556
g74
(dp1557
sg83
g1539
sg76
(lp1558
g69
(g90
g71
NtRp1559
(dp1560
g74
(dp1561
sg83
g1555
sg76
(lp1562
g69
(g70
g71
NtRp1563
(dp1564
g74
(dp1565
g82
I3
ssg83
g1559
sg76
(lp1566
S'99'
p1567
asbasbasbag69
(g85
g71
NtRp1568
(dp1569
g74
(dp1570
sg83
g1539
sg76
(lp1571
g69
(g90
g71
NtRp1572
(dp1573
g74
(dp1574
sg83
g1568
sg76
(lp1575
g69
(g70
g71
NtRp1576
(dp1577
g74
(dp1578
g82
I3
ssg83
g1572
sg76
(lp1579
S'4'
asbasbasbag69
(g85
g71
NtRp1580
(dp1581
g74
(dp1582
sg83
g1539
sg76
(lp1583
g69
(g90
g71
NtRp1584
(dp1585
g74
(dp1586
sg83
g1580
sg76
(lp1587
g69
(g70
g71
NtRp1588
(dp1589
g74
(dp1590
g82
I3
ssg83
g1584
sg76
(lp1591
S'datetime.datetime(2011, 12, 14, 14, 46, 14)'
p1592
asbasbasbag69
(g85
g71
NtRp1593
(dp1594
g74
(dp1595
sg83
g1539
sg76
(lp1596
g69
(g90
g71
NtRp1597
(dp1598
g74
(dp1599
sg83
g1593
sg76
(lp1600
g69
(g70
g71
NtRp1601
(dp1602
g74
(dp1603
g82
I3
ssg83
g1597
sg76
(lp1604
S'stable'
p1605
asbasbasbasbasbasbasbag69
(g85
g71
NtRp1606
(dp1607
g74
(dp1608
sg83
g834
sg76
(lp1609
g69
(g90
g71
NtRp1610
(dp1611
g74
(dp1612
g94
g95
ssg83
g1606
sg76
(lp1613
S'wsgi_errors'
p1614
asbag69
(g90
g71
NtRp1615
(dp1616
g74
(dp1617
g101
g102
ssg83
g1606
sg76
(lp1618
S':'
asbag69
(g90
g71
NtRp1619
(dp1620
g74
(dp1621
sg83
g1606
sg76
(lp1622
g69
(g70
g71
NtRp1623
(dp1624
g74
(dp1625
g82
I4
ssg83
g1619
sg76
(lp1626
S"<open file '<stderr>', mode 'w' at 0x7f9b1b31e1e0>"
p1627
asbasbasbag69
(g85
g71
NtRp1628
(dp1629
g74
(dp1630
sg83
g834
sg76
(lp1631
g69
(g90
g71
NtRp1632
(dp1633
g74
(dp1634
g94
g95
ssg83
g1628
sg76
(lp1635
S'wsgi_file_wrapper'
p1636
asbag69
(g90
g71
NtRp1637
(dp1638
g74
(dp1639
g101
g102
ssg83
g1628
sg76
(lp1640
S':'
asbag69
(g90
g71
NtRp1641
(dp1642
g74
(dp1643
sg83
g1628
sg76
(lp1644
g69
(g70
g71
NtRp1645
(dp1646
g74
(dp1647
g82
I4
ssg83
g1641
sg76
(lp1648
S'<class wsgiref.util.FileWrapper at 0x296a4d0>'
p1649
asbasbasbag69
(g85
g71
NtRp1650
(dp1651
g74
(dp1652
sg83
g834
sg76
(lp1653
g69
(g90
g71
NtRp1654
(dp1655
g74
(dp1656
g94
g95
ssg83
g1650
sg76
(lp1657
S'wsgi_input'
p1658
asbag69
(g90
g71
NtRp1659
(dp1660
g74
(dp1661
g101
g102
ssg83
g1650
sg76
(lp1662
S':'
asbag69
(g90
g71
NtRp1663
(dp1664
g74
(dp1665
sg83
g1650
sg76
(lp1666
g69
(g70
g71
NtRp1667
(dp1668
g74
(dp1669
g82
I4
ssg83
g1663
sg76
(lp1670
S'<socket._fileobject object at 0x2a294d0>'
p1671
asbasbasbag69
(g85
g71
NtRp1672
(dp1673
g74
(dp1674
sg83
g834
sg76
(lp1675
g69
(g90
g71
NtRp1676
(dp1677
g74
(dp1678
g94
g95
ssg83
g1672
sg76
(lp1679
S'wsgi_multiprocess'
p1680
asbag69
(g90
g71
NtRp1681
(dp1682
g74
(dp1683
g101
g102
ssg83
g1672
sg76
(lp1684
S':'
asbag69
(g90
g71
NtRp1685
(dp1686
g74
(dp1687
sg83
g1672
sg76
(lp1688
g69
(g70
g71
NtRp1689
(dp1690
g74
(dp1691
g82
I4
ssg83
g1685
sg76
(lp1692
g972
asbasbasbag69
(g85
g71
NtRp1693
(dp1694
g74
(dp1695
sg83
g834
sg76
(lp1696
g69
(g90
g71
NtRp1697
(dp1698
g74
(dp1699
g94
g95
ssg83
g1693
sg76
(lp1700
S'wsgi_multithread'
p1701
asbag69
(g90
g71
NtRp1702
(dp1703
g74
(dp1704
g101
g102
ssg83
g1693
sg76
(lp1705
S':'
asbag69
(g90
g71
NtRp1706
(dp1707
g74
(dp1708
sg83
g1693
sg76
(lp1709
g69
(g70
g71
NtRp1710
(dp1711
g74
(dp1712
g82
I4
ssg83
g1706
sg76
(lp1713
g112
asbasbasbag69
(g85
g71
NtRp1714
(dp1715
g74
(dp1716
sg83
g834
sg76
(lp1717
g69
(g90
g71
NtRp1718
(dp1719
g74
(dp1720
g94
g95
ssg83
g1714
sg76
(lp1721
S'wsgi_run_once'
p1722
asbag69
(g90
g71
NtRp1723
(dp1724
g74
(dp1725
g101
g102
ssg83
g1714
sg76
(lp1726
S':'
asbag69
(g90
g71
NtRp1727
(dp1728
g74
(dp1729
sg83
g1714
sg76
(lp1730
g69
(g70
g71
NtRp1731
(dp1732
g74
(dp1733
g82
I4
ssg83
g1727
sg76
(lp1734
g972
asbasbasbag69
(g85
g71
NtRp1735
(dp1736
g74
(dp1737
sg83
g834
sg76
(lp1738
g69
(g90
g71
NtRp1739
(dp1740
g74
(dp1741
g94
g95
ssg83
g1735
sg76
(lp1742
S'wsgi_url_scheme'
p1743
asbag69
(g90
g71
NtRp1744
(dp1745
g74
(dp1746
g101
g102
ssg83
g1735
sg76
(lp1747
S':'
asbag69
(g90
g71
NtRp1748
(dp1749
g74
(dp1750
sg83
g1735
sg76
(lp1751
g69
(g70
g71
NtRp1752
(dp1753
g74
(dp1754
g82
I4
ssg83
g1748
sg76
(lp1755
S'http'
p1756
asbasbasbag69
(g85
g71
NtRp1757
(dp1758
g74
(dp1759
sg83
g834
sg76
(lp1760
g69
(g90
g71
NtRp1761
(dp1762
g74
(dp1763
g94
g95
ssg83
g1757
sg76
(lp1764
S'wsgi_version'
p1765
asbag69
(g90
g71
NtRp1766
(dp1767
g74
(dp1768
g101
g102
ssg83
g1757
sg76
(lp1769
S':'
asbag69
(g90
g71
NtRp1770
(dp1771
g74
(dp1772
sg83
g1757
sg76
(lp1773
g69
(g70
g71
NtRp1774
(dp1775
g74
(dp1776
g82
I4
ssg83
g1770
sg76
(lp1777
g69
(g78
g71
NtRp1778
(dp1779
g74
(dp1780
g82
I3
ssg83
Nsg76
(lp1781
g69
(g85
g71
NtRp1782
(dp1783
g74
(dp1784
sg83
g1778
sg76
(lp1785
g69
(g90
g71
NtRp1786
(dp1787
g74
(dp1788
sg83
g1782
sg76
(lp1789
g69
(g70
g71
NtRp1790
(dp1791
g74
(dp1792
g82
I3
ssg83
g1786
sg76
(lp1793
S'1'
asbasbasbag69
(g85
g71
NtRp1794
(dp1795
g74
(dp1796
sg83
g1778
sg76
(lp1797
g69
(g90
g71
NtRp1798
(dp1799
g74
(dp1800
sg83
g1794
sg76
(lp1801
g69
(g70
g71
NtRp1802
(dp1803
g74
(dp1804
g82
I3
ssg83
g1798
sg76
(lp1805
S'0'
asbasbasbasbasbasbasbasbasbasbasbag69
(g85
g71
NtRp1806
(dp1807
g74
(dp1808
sg83
g79
sg76
(lp1809
g69
(g90
g71
NtRp1810
(dp1811
g74
(dp1812
g94
g95
ssg83
g1806
sg76
(lp1813
S'extension'
p1814
asbag69
(g90
g71
NtRp1815
(dp1816
g74
(dp1817
g101
g102
ssg83
g1806
sg76
(lp1818
S':'
asbag69
(g90
g71
NtRp1819
(dp1820
g74
(dp1821
sg83
g1806
sg76
(lp1822
g69
(g70
g71
NtRp1823
(dp1824
g74
(dp1825
g82
I5
ssg83
g1819
sg76
(lp1826
S'html'
p1827
asbasbasbag69
(g85
g71
NtRp1828
(dp1829
g74
(dp1830
sg83
g79
sg76
(lp1831
g69
(g90
g71
NtRp1832
(dp1833
g74
(dp1834
g94
g95
ssg83
g1828
sg76
(lp1835
S'folder'
p1836
asbag69
(g90
g71
NtRp1837
(dp1838
g74
(dp1839
g101
g102
ssg83
g1828
sg76
(lp1840
S':'
asbag69
(g90
g71
NtRp1841
(dp1842
g74
(dp1843
sg83
g1828
sg76
(lp1844
g69
(g70
g71
NtRp1845
(dp1846
g74
(dp1847
g82
I5
ssg83
g1841
sg76
(lp1848
S'/home/andromeda/work/graphing/web2py/applications/testtest/'
p1849
asbasbasbag69
(g85
g71
NtRp1850
(dp1851
g74
(dp1852
sg83
g79
sg76
(lp1853
g69
(g90
g71
NtRp1854
(dp1855
g74
(dp1856
g94
g95
ssg83
g1850
sg76
(lp1857
S'function'
p1858
asbag69
(g90
g71
NtRp1859
(dp1860
g74
(dp1861
g101
g102
ssg83
g1850
sg76
(lp1862
S':'
asbag69
(g90
g71
NtRp1863
(dp1864
g74
(dp1865
sg83
g1850
sg76
(lp1866
g69
(g70
g71
NtRp1867
(dp1868
g74
(dp1869
g82
I5
ssg83
g1863
sg76
(lp1870
S'api'
p1871
asbasbasbag69
(g85
g71
NtRp1872
(dp1873
g74
(dp1874
sg83
g79
sg76
(lp1875
g69
(g90
g71
NtRp1876
(dp1877
g74
(dp1878
g94
g95
ssg83
g1872
sg76
(lp1879
S'get_vars'
p1880
asbag69
(g90
g71
NtRp1881
(dp1882
g74
(dp1883
g101
g102
ssg83
g1872
sg76
(lp1884
S':'
asbag69
(g90
g71
NtRp1885
(dp1886
g74
(dp1887
sg83
g1872
sg76
(lp1888
g69
(g70
g71
NtRp1889
(dp1890
g74
(dp1891
g82
I5
ssg83
g1885
sg76
(lp1892
g69
(g78
g71
NtRp1893
(dp1894
g74
(dp1895
g82
I4
ssg83
Nsg76
(lp1896
g69
(g85
g71
NtRp1897
(dp1898
g74
(dp1899
sg83
g1893
sg76
(lp1900
g69
(g90
g71
NtRp1901
(dp1902
g74
(dp1903
g94
g95
ssg83
g1897
sg76
(lp1904
S'name'
p1905
asbag69
(g90
g71
NtRp1906
(dp1907
g74
(dp1908
g101
g102
ssg83
g1897
sg76
(lp1909
S':'
asbag69
(g90
g71
NtRp1910
(dp1911
g74
(dp1912
sg83
g1897
sg76
(lp1913
g69
(g70
g71
NtRp1914
(dp1915
g74
(dp1916
g82
I4
ssg83
g1910
sg76
(lp1917
S'EOI'
p1918
asbasbasbag69
(g85
g71
NtRp1919
(dp1920
g74
(dp1921
sg83
g1893
sg76
(lp1922
g69
(g90
g71
NtRp1923
(dp1924
g74
(dp1925
g94
g95
ssg83
g1919
sg76
(lp1926
S'step'
p1927
asbag69
(g90
g71
NtRp1928
(dp1929
g74
(dp1930
g101
g102
ssg83
g1919
sg76
(lp1931
S':'
asbag69
(g90
g71
NtRp1932
(dp1933
g74
(dp1934
sg83
g1919
sg76
(lp1935
g69
(g70
g71
NtRp1936
(dp1937
g74
(dp1938
g82
I4
ssg83
g1932
sg76
(lp1939
S'2'
asbasbasbag69
(g85
g71
NtRp1940
(dp1941
g74
(dp1942
sg83
g1893
sg76
(lp1943
g69
(g90
g71
NtRp1944
(dp1945
g74
(dp1946
g94
g95
ssg83
g1940
sg76
(lp1947
S'type'
p1948
asbag69
(g90
g71
NtRp1949
(dp1950
g74
(dp1951
g101
g102
ssg83
g1940
sg76
(lp1952
S':'
asbag69
(g90
g71
NtRp1953
(dp1954
g74
(dp1955
sg83
g1940
sg76
(lp1956
g69
(g70
g71
NtRp1957
(dp1958
g74
(dp1959
g82
I4
ssg83
g1953
sg76
(lp1960
S'ag_over_time'
p1961
asbasbasbasbasbasbasbag69
(g85
g71
NtRp1962
(dp1963
g74
(dp1964
sg83
g79
sg76
(lp1965
g69
(g90
g71
NtRp1966
(dp1967
g74
(dp1968
g94
g95
ssg83
g1962
sg76
(lp1969
S'global_settings'
p1970
asbag69
(g90
g71
NtRp1971
(dp1972
g74
(dp1973
g101
g102
ssg83
g1962
sg76
(lp1974
S':'
asbag69
(g90
g71
NtRp1975
(dp1976
g74
(dp1977
sg83
g1962
sg76
(lp1978
g69
(g70
g71
NtRp1979
(dp1980
g74
(dp1981
g82
I5
ssg83
g1975
sg76
(lp1982
g69
(g78
g71
NtRp1983
(dp1984
g74
(dp1985
g82
I4
ssg83
Nsg76
(lp1986
g69
(g85
g71
NtRp1987
(dp1988
g74
(dp1989
sg83
g1983
sg76
(lp1990
g69
(g90
g71
NtRp1991
(dp1992
g74
(dp1993
g94
g95
ssg83
g1987
sg76
(lp1994
g846
asbag69
(g90
g71
NtRp1995
(dp1996
g74
(dp1997
g101
g102
ssg83
g1987
sg76
(lp1998
S':'
asbag69
(g90
g71
NtRp1999
(dp2000
g74
(dp2001
sg83
g1987
sg76
(lp2002
g69
(g70
g71
NtRp2003
(dp2004
g74
(dp2005
g82
I4
ssg83
g1999
sg76
(lp2006
S"set(['/home/andromeda/work/graphing/web2py/applications/testtest/', '/home/andromeda/work/graphing/web2py/applications/admin/', '/home/andromeda/work/graphing/web2py/applications/welcome/', '/home/andromeda/work/graphing/web2py/applications/examples/'])"
p2007
asbasbasbag69
(g85
g71
NtRp2008
(dp2009
g74
(dp2010
sg83
g1983
sg76
(lp2011
g69
(g90
g71
NtRp2012
(dp2013
g74
(dp2014
g94
g95
ssg83
g2008
sg76
(lp2015
g868
asbag69
(g90
g71
NtRp2016
(dp2017
g74
(dp2018
g101
g102
ssg83
g2008
sg76
(lp2019
S':'
asbag69
(g90
g71
NtRp2020
(dp2021
g74
(dp2022
sg83
g2008
sg76
(lp2023
g69
(g70
g71
NtRp2024
(dp2025
g74
(dp2026
g82
I4
ssg83
g2020
sg76
(lp2027
g881
asbasbasbag69
(g85
g71
NtRp2028
(dp2029
g74
(dp2030
sg83
g1983
sg76
(lp2031
g69
(g90
g71
NtRp2032
(dp2033
g74
(dp2034
g94
g95
ssg83
g2028
sg76
(lp2035
g890
asbag69
(g90
g71
NtRp2036
(dp2037
g74
(dp2038
g101
g102
ssg83
g2028
sg76
(lp2039
S':'
asbag69
(g90
g71
NtRp2040
(dp2041
g74
(dp2042
sg83
g2028
sg76
(lp2043
g69
(g70
g71
NtRp2044
(dp2045
g74
(dp2046
g82
I4
ssg83
g2040
sg76
(lp2047
g69
(g78
g71
NtRp2048
(dp2049
g74
(dp2050
g82
I3
ssg83
Nsg76
(lp2051
sbasbasbasbag69
(g85
g71
NtRp2052
(dp2053
g74
(dp2054
sg83
g1983
sg76
(lp2055
g69
(g90
g71
NtRp2056
(dp2057
g74
(dp2058
g94
g95
ssg83
g2052
sg76
(lp2059
g915
asbag69
(g90
g71
NtRp2060
(dp2061
g74
(dp2062
g101
g102
ssg83
g2052
sg76
(lp2063
S':'
asbag69
(g90
g71
NtRp2064
(dp2065
g74
(dp2066
sg83
g2052
sg76
(lp2067
g69
(g70
g71
NtRp2068
(dp2069
g74
(dp2070
g82
I4
ssg83
g2064
sg76
(lp2071
S"<Values at 0x2a04758: {'verbose': False, 'ip': '127.0.0.1', 'shutdown_timeout': 5, 'taskbar': False, 'nocron': False, 'pid_filename': 'httpserver.pid', 'maxthreads': None, 'softcron': False, 'server_name': 'andromeda-desktop', 'bpython': False, 'nogui': False, 'port': 8000, 'extcron': False, 'debuglevel': 30, 'test': None, 'folder': '/home/andromeda/work/graphing/web2py', 'config': '', 'import_models': False, 'winservice': '', 'shell': None, 'run': '', 'log_filename': 'httpserver.log', 'args': [''], 'socket_timeout': 1, 'ssl_ca_certificate': None, 'scheduler': None, 'profiler_filename': None, 'ssl_private_key': '', 'password': 'cookie', 'request_queue_size': 5, 'ssl_certificate': '', 'cronjob': False, 'numthreads': None, 'quiet': False, 'interfaces': None, 'minthreads': None, 'timeout': 10, 'plain': False, 'nobanner': False}>"
p2072
asbasbasbag69
(g85
g71
NtRp2073
(dp2074
g74
(dp2075
sg83
g1983
sg76
(lp2076
g69
(g90
g71
NtRp2077
(dp2078
g74
(dp2079
g94
g95
ssg83
g2073
sg76
(lp2080
g937
asbag69
(g90
g71
NtRp2081
(dp2082
g74
(dp2083
g101
g102
ssg83
g2073
sg76
(lp2084
S':'
asbag69
(g90
g71
NtRp2085
(dp2086
g74
(dp2087
sg83
g2073
sg76
(lp2088
g69
(g70
g71
NtRp2089
(dp2090
g74
(dp2091
g82
I4
ssg83
g2085
sg76
(lp2092
S'set([])'
p2093
asbasbasbag69
(g85
g71
NtRp2094
(dp2095
g74
(dp2096
sg83
g1983
sg76
(lp2097
g69
(g90
g71
NtRp2098
(dp2099
g74
(dp2100
g94
g95
ssg83
g2094
sg76
(lp2101
g959
asbag69
(g90
g71
NtRp2102
(dp2103
g74
(dp2104
g101
g102
ssg83
g2094
sg76
(lp2105
S':'
asbag69
(g90
g71
NtRp2106
(dp2107
g74
(dp2108
sg83
g2094
sg76
(lp2109
g69
(g70
g71
NtRp2110
(dp2111
g74
(dp2112
g82
I4
ssg83
g2106
sg76
(lp2113
g972
asbasbasbag69
(g85
g71
NtRp2114
(dp2115
g74
(dp2116
sg83
g1983
sg76
(lp2117
g69
(g90
g71
NtRp2118
(dp2119
g74
(dp2120
g94
g95
ssg83
g2114
sg76
(lp2121
g981
asbag69
(g90
g71
NtRp2122
(dp2123
g74
(dp2124
g101
g102
ssg83
g2114
sg76
(lp2125
S':'
asbag69
(g90
g71
NtRp2126
(dp2127
g74
(dp2128
sg83
g2114
sg76
(lp2129
g69
(g70
g71
NtRp2130
(dp2131
g74
(dp2132
g82
I4
ssg83
g2126
sg76
(lp2133
g994
asbasbasbag69
(g85
g71
NtRp2134
(dp2135
g74
(dp2136
sg83
g1983
sg76
(lp2137
g69
(g90
g71
NtRp2138
(dp2139
g74
(dp2140
g94
g95
ssg83
g2134
sg76
(lp2141
g1223
asbag69
(g90
g71
NtRp2142
(dp2143
g74
(dp2144
g101
g102
ssg83
g2134
sg76
(lp2145
S':'
asbag69
(g90
g71
NtRp2146
(dp2147
g74
(dp2148
sg83
g2134
sg76
(lp2149
g69
(g70
g71
NtRp2150
(dp2151
g74
(dp2152
g82
I4
ssg83
g2146
sg76
(lp2153
g972
asbasbasbag69
(g85
g71
NtRp2154
(dp2155
g74
(dp2156
sg83
g1983
sg76
(lp2157
g69
(g90
g71
NtRp2158
(dp2159
g74
(dp2160
g94
g95
ssg83
g2154
sg76
(lp2161
g1244
asbag69
(g90
g71
NtRp2162
(dp2163
g74
(dp2164
g101
g102
ssg83
g2154
sg76
(lp2165
S':'
asbag69
(g90
g71
NtRp2166
(dp2167
g74
(dp2168
sg83
g2154
sg76
(lp2169
g69
(g70
g71
NtRp2170
(dp2171
g74
(dp2172
g82
I4
ssg83
g2166
sg76
(lp2173
g972
asbasbasbag69
(g85
g71
NtRp2174
(dp2175
g74
(dp2176
sg83
g1983
sg76
(lp2177
g69
(g90
g71
NtRp2178
(dp2179
g74
(dp2180
g94
g95
ssg83
g2174
sg76
(lp2181
g1483
asbag69
(g90
g71
NtRp2182
(dp2183
g74
(dp2184
g101
g102
ssg83
g2174
sg76
(lp2185
S':'
asbag69
(g90
g71
NtRp2186
(dp2187
g74
(dp2188
sg83
g2174
sg76
(lp2189
g69
(g70
g71
NtRp2190
(dp2191
g74
(dp2192
g82
I4
ssg83
g2186
sg76
(lp2193
g1496
asbasbasbag69
(g85
g71
NtRp2194
(dp2195
g74
(dp2196
sg83
g1983
sg76
(lp2197
g69
(g90
g71
NtRp2198
(dp2199
g74
(dp2200
g94
g95
ssg83
g2194
sg76
(lp2201
g1526
asbag69
(g90
g71
NtRp2202
(dp2203
g74
(dp2204
g101
g102
ssg83
g2194
sg76
(lp2205
S':'
asbag69
(g90
g71
NtRp2206
(dp2207
g74
(dp2208
sg83
g2194
sg76
(lp2209
g69
(g70
g71
NtRp2210
(dp2211
g74
(dp2212
g82
I4
ssg83
g2206
sg76
(lp2213
g69
(g78
g71
NtRp2214
(dp2215
g74
(dp2216
g82
I3
ssg83
Nsg76
(lp2217
g69
(g85
g71
NtRp2218
(dp2219
g74
(dp2220
sg83
g2214
sg76
(lp2221
g69
(g90
g71
NtRp2222
(dp2223
g74
(dp2224
sg83
g2218
sg76
(lp2225
g69
(g70
g71
NtRp2226
(dp2227
g74
(dp2228
g82
I3
ssg83
g2222
sg76
(lp2229
S'1'
asbasbasbag69
(g85
g71
NtRp2230
(dp2231
g74
(dp2232
sg83
g2214
sg76
(lp2233
g69
(g90
g71
NtRp2234
(dp2235
g74
(dp2236
sg83
g2230
sg76
(lp2237
g69
(g70
g71
NtRp2238
(dp2239
g74
(dp2240
g82
I3
ssg83
g2234
sg76
(lp2241
S'99'
p2242
asbasbasbag69
(g85
g71
NtRp2243
(dp2244
g74
(dp2245
sg83
g2214
sg76
(lp2246
g69
(g90
g71
NtRp2247
(dp2248
g74
(dp2249
sg83
g2243
sg76
(lp2250
g69
(g70
g71
NtRp2251
(dp2252
g74
(dp2253
g82
I3
ssg83
g2247
sg76
(lp2254
S'4'
asbasbasbag69
(g85
g71
NtRp2255
(dp2256
g74
(dp2257
sg83
g2214
sg76
(lp2258
g69
(g90
g71
NtRp2259
(dp2260
g74
(dp2261
sg83
g2255
sg76
(lp2262
g69
(g70
g71
NtRp2263
(dp2264
g74
(dp2265
g82
I3
ssg83
g2259
sg76
(lp2266
S'datetime.datetime(2011, 12, 14, 14, 46, 14)'
p2267
asbasbasbag69
(g85
g71
NtRp2268
(dp2269
g74
(dp2270
sg83
g2214
sg76
(lp2271
g69
(g90
g71
NtRp2272
(dp2273
g74
(dp2274
sg83
g2268
sg76
(lp2275
g69
(g70
g71
NtRp2276
(dp2277
g74
(dp2278
g82
I3
ssg83
g2272
sg76
(lp2279
g1605
asbasbasbasbasbasbasbasbasbasbasbag69
(g85
g71
NtRp2280
(dp2281
g74
(dp2282
sg83
g79
sg76
(lp2283
g69
(g90
g71
NtRp2284
(dp2285
g74
(dp2286
g94
g95
ssg83
g2280
sg76
(lp2287
S'is_https'
p2288
asbag69
(g90
g71
NtRp2289
(dp2290
g74
(dp2291
g101
g102
ssg83
g2280
sg76
(lp2292
S':'
asbag69
(g90
g71
NtRp2293
(dp2294
g74
(dp2295
sg83
g2280
sg76
(lp2296
g69
(g70
g71
NtRp2297
(dp2298
g74
(dp2299
g82
I5
ssg83
g2293
sg76
(lp2300
g972
asbasbasbag69
(g85
g71
NtRp2301
(dp2302
g74
(dp2303
sg83
g79
sg76
(lp2304
g69
(g90
g71
NtRp2305
(dp2306
g74
(dp2307
g94
g95
ssg83
g2301
sg76
(lp2308
S'is_local'
p2309
asbag69
(g90
g71
NtRp2310
(dp2311
g74
(dp2312
g101
g102
ssg83
g2301
sg76
(lp2313
S':'
asbag69
(g90
g71
NtRp2314
(dp2315
g74
(dp2316
sg83
g2301
sg76
(lp2317
g69
(g70
g71
NtRp2318
(dp2319
g74
(dp2320
g82
I5
ssg83
g2314
sg76
(lp2321
g112
asbasbasbag69
(g85
g71
NtRp2322
(dp2323
g74
(dp2324
sg83
g79
sg76
(lp2325
g69
(g90
g71
NtRp2326
(dp2327
g74
(dp2328
g94
g95
ssg83
g2322
sg76
(lp2329
S'is_restful'
p2330
asbag69
(g90
g71
NtRp2331
(dp2332
g74
(dp2333
g101
g102
ssg83
g2322
sg76
(lp2334
S':'
asbag69
(g90
g71
NtRp2335
(dp2336
g74
(dp2337
sg83
g2322
sg76
(lp2338
g69
(g70
g71
NtRp2339
(dp2340
g74
(dp2341
g82
I5
ssg83
g2335
sg76
(lp2342
g972
asbasbasbag69
(g85
g71
NtRp2343
(dp2344
g74
(dp2345
sg83
g79
sg76
(lp2346
g69
(g90
g71
NtRp2347
(dp2348
g74
(dp2349
g94
g95
ssg83
g2343
sg76
(lp2350
S'now'
p2351
asbag69
(g90
g71
NtRp2352
(dp2353
g74
(dp2354
g101
g102
ssg83
g2343
sg76
(lp2355
S':'
asbag69
(g90
g71
NtRp2356
(dp2357
g74
(dp2358
sg83
g2343
sg76
(lp2359
g69
(g70
g71
NtRp2360
(dp2361
g74
(dp2362
g82
I5
ssg83
g2356
sg76
(lp2363
S'datetime.datetime(2012, 2, 25, 18, 18, 10, 469072)'
p2364
asbasbasbag69
(g85
g71
NtRp2365
(dp2366
g74
(dp2367
sg83
g79
sg76
(lp2368
g69
(g90
g71
NtRp2369
(dp2370
g74
(dp2371
g94
g95
ssg83
g2365
sg76
(lp2372
S'post_vars'
p2373
asbag69
(g90
g71
NtRp2374
(dp2375
g74
(dp2376
g101
g102
ssg83
g2365
sg76
(lp2377
S':'
asbag69
(g90
g71
NtRp2378
(dp2379
g74
(dp2380
sg83
g2365
sg76
(lp2381
g69
(g70
g71
NtRp2382
(dp2383
g74
(dp2384
g82
I5
ssg83
g2378
sg76
(lp2385
g69
(g78
g71
NtRp2386
(dp2387
g74
(dp2388
g82
I4
ssg83
Nsg76
(lp2389
sbasbasbasbag69
(g85
g71
NtRp2390
(dp2391
g74
(dp2392
sg83
g79
sg76
(lp2393
g69
(g90
g71
NtRp2394
(dp2395
g74
(dp2396
g94
g95
ssg83
g2390
sg76
(lp2397
S'url'
p2398
asbag69
(g90
g71
NtRp2399
(dp2400
g74
(dp2401
g101
g102
ssg83
g2390
sg76
(lp2402
S':'
asbag69
(g90
g71
NtRp2403
(dp2404
g74
(dp2405
sg83
g2390
sg76
(lp2406
g69
(g70
g71
NtRp2407
(dp2408
g74
(dp2409
g82
I5
ssg83
g2403
sg76
(lp2410
S'/testtest/utils/api'
p2411
asbasbasbag69
(g85
g71
NtRp2412
(dp2413
g74
(dp2414
sg83
g79
sg76
(lp2415
g69
(g90
g71
NtRp2416
(dp2417
g74
(dp2418
g94
g95
ssg83
g2412
sg76
(lp2419
S'utcnow'
p2420
asbag69
(g90
g71
NtRp2421
(dp2422
g74
(dp2423
g101
g102
ssg83
g2412
sg76
(lp2424
S':'
asbag69
(g90
g71
NtRp2425
(dp2426
g74
(dp2427
sg83
g2412
sg76
(lp2428
g69
(g70
g71
NtRp2429
(dp2430
g74
(dp2431
g82
I5
ssg83
g2425
sg76
(lp2432
S'datetime.datetime(2012, 2, 25, 12, 48, 10, 469106)'
p2433
asbasbasbag69
(g85
g71
NtRp2434
(dp2435
g74
(dp2436
sg83
g79
sg76
(lp2437
g69
(g90
g71
NtRp2438
(dp2439
g74
(dp2440
g94
g95
ssg83
g2434
sg76
(lp2441
S'uuid'
p2442
asbag69
(g90
g71
NtRp2443
(dp2444
g74
(dp2445
g101
g102
ssg83
g2434
sg76
(lp2446
S':'
asbag69
(g90
g71
NtRp2447
(dp2448
g74
(dp2449
sg83
g2434
sg76
(lp2450
g69
(g70
g71
NtRp2451
(dp2452
g74
(dp2453
g82
I5
ssg83
g2447
sg76
(lp2454
S'testtest/127.0.0.1.2012-02-25.18-18-10.d3b13087-7cb5-4874-a66c-d3dbc662089b'
p2455
asbasbasbag69
(g85
g71
NtRp2456
(dp2457
g74
(dp2458
sg83
g79
sg76
(lp2459
g69
(g90
g71
NtRp2460
(dp2461
g74
(dp2462
g94
g95
ssg83
g2456
sg76
(lp2463
S'vars'
p2464
asbag69
(g90
g71
NtRp2465
(dp2466
g74
(dp2467
g101
g102
ssg83
g2456
sg76
(lp2468
S':'
asbag69
(g90
g71
NtRp2469
(dp2470
g74
(dp2471
sg83
g2456
sg76
(lp2472
g69
(g70
g71
NtRp2473
(dp2474
g74
(dp2475
g82
I5
ssg83
g2469
sg76
(lp2476
g69
(g78
g71
NtRp2477
(dp2478
g74
(dp2479
g82
I4
ssg83
Nsg76
(lp2480
g69
(g85
g71
NtRp2481
(dp2482
g74
(dp2483
sg83
g2477
sg76
(lp2484
g69
(g90
g71
NtRp2485
(dp2486
g74
(dp2487
g94
g95
ssg83
g2481
sg76
(lp2488
g1905
asbag69
(g90
g71
NtRp2489
(dp2490
g74
(dp2491
g101
g102
ssg83
g2481
sg76
(lp2492
S':'
asbag69
(g90
g71
NtRp2493
(dp2494
g74
(dp2495
sg83
g2481
sg76
(lp2496
g69
(g70
g71
NtRp2497
(dp2498
g74
(dp2499
g82
I4
ssg83
g2493
sg76
(lp2500
g1918
asbasbasbag69
(g85
g71
NtRp2501
(dp2502
g74
(dp2503
sg83
g2477
sg76
(lp2504
g69
(g90
g71
NtRp2505
(dp2506
g74
(dp2507
g94
g95
ssg83
g2501
sg76
(lp2508
g1927
asbag69
(g90
g71
NtRp2509
(dp2510
g74
(dp2511
g101
g102
ssg83
g2501
sg76
(lp2512
S':'
asbag69
(g90
g71
NtRp2513
(dp2514
g74
(dp2515
sg83
g2501
sg76
(lp2516
g69
(g70
g71
NtRp2517
(dp2518
g74
(dp2519
g82
I4
ssg83
g2513
sg76
(lp2520
S'2'
asbasbasbag69
(g85
g71
NtRp2521
(dp2522
g74
(dp2523
sg83
g2477
sg76
(lp2524
g69
(g90
g71
NtRp2525
(dp2526
g74
(dp2527
g94
g95
ssg83
g2521
sg76
(lp2528
g1948
asbag69
(g90
g71
NtRp2529
(dp2530
g74
(dp2531
g101
g102
ssg83
g2521
sg76
(lp2532
S':'
asbag69
(g90
g71
NtRp2533
(dp2534
g74
(dp2535
sg83
g2521
sg76
(lp2536
g69
(g70
g71
NtRp2537
(dp2538
g74
(dp2539
g82
I4
ssg83
g2533
sg76
(lp2540
g1961
asbasbasbasbasbasbasbag69
(g85
g71
NtRp2541
(dp2542
g74
(dp2543
sg83
g79
sg76
(lp2544
g69
(g90
g71
NtRp2545
(dp2546
g74
(dp2547
g94
g95
ssg83
g2541
sg76
(lp2548
S'wsgi'
p2549
asbag69
(g90
g71
NtRp2550
(dp2551
g74
(dp2552
g101
g102
ssg83
g2541
sg76
(lp2553
S':'
asbag69
(g90
g71
NtRp2554
(dp2555
g74
(dp2556
sg83
g2541
sg76
(lp2557
g69
(g70
g71
NtRp2558
(dp2559
g74
(dp2560
g82
I5
ssg83
g2554
sg76
(lp2561
g69
(g78
g71
NtRp2562
(dp2563
g74
(dp2564
g82
I4
ssg83
Nsg76
(lp2565
g69
(g85
g71
NtRp2566
(dp2567
g74
(dp2568
sg83
g2562
sg76
(lp2569
g69
(g90
g71
NtRp2570
(dp2571
g74
(dp2572
g94
g95
ssg83
g2566
sg76
(lp2573
S'environ'
p2574
asbag69
(g90
g71
NtRp2575
(dp2576
g74
(dp2577
g101
g102
ssg83
g2566
sg76
(lp2578
S':'
asbag69
(g90
g71
NtRp2579
(dp2580
g74
(dp2581
sg83
g2566
sg76
(lp2582
g69
(g70
g71
NtRp2583
(dp2584
g74
(dp2585
g82
I4
ssg83
g2579
sg76
(lp2586
g69
(g78
g71
NtRp2587
(dp2588
g74
(dp2589
g82
I3
ssg83
Nsg76
(lp2590
g69
(g85
g71
NtRp2591
(dp2592
g74
(dp2593
sg83
g2587
sg76
(lp2594
g69
(g90
g71
NtRp2595
(dp2596
g74
(dp2597
g94
g95
ssg83
g2591
sg76
(lp2598
S'HTTP_ACCEPT'
p2599
asbag69
(g90
g71
NtRp2600
(dp2601
g74
(dp2602
g101
g102
ssg83
g2591
sg76
(lp2603
S':'
asbag69
(g90
g71
NtRp2604
(dp2605
g74
(dp2606
sg83
g2591
sg76
(lp2607
g69
(g70
g71
NtRp2608
(dp2609
g74
(dp2610
g82
I3
ssg83
g2604
sg76
(lp2611
g1016
asbasbasbag69
(g85
g71
NtRp2612
(dp2613
g74
(dp2614
sg83
g2587
sg76
(lp2615
g69
(g90
g71
NtRp2616
(dp2617
g74
(dp2618
g94
g95
ssg83
g2612
sg76
(lp2619
S'HTTP_ACCEPT_CHARSET'
p2620
asbag69
(g90
g71
NtRp2621
(dp2622
g74
(dp2623
g101
g102
ssg83
g2612
sg76
(lp2624
S':'
asbag69
(g90
g71
NtRp2625
(dp2626
g74
(dp2627
sg83
g2612
sg76
(lp2628
g69
(g70
g71
NtRp2629
(dp2630
g74
(dp2631
g82
I3
ssg83
g2625
sg76
(lp2632
g1038
asbasbasbag69
(g85
g71
NtRp2633
(dp2634
g74
(dp2635
sg83
g2587
sg76
(lp2636
g69
(g90
g71
NtRp2637
(dp2638
g74
(dp2639
g94
g95
ssg83
g2633
sg76
(lp2640
S'HTTP_ACCEPT_ENCODING'
p2641
asbag69
(g90
g71
NtRp2642
(dp2643
g74
(dp2644
g101
g102
ssg83
g2633
sg76
(lp2645
S':'
asbag69
(g90
g71
NtRp2646
(dp2647
g74
(dp2648
sg83
g2633
sg76
(lp2649
g69
(g70
g71
NtRp2650
(dp2651
g74
(dp2652
g82
I3
ssg83
g2646
sg76
(lp2653
g1060
asbasbasbag69
(g85
g71
NtRp2654
(dp2655
g74
(dp2656
sg83
g2587
sg76
(lp2657
g69
(g90
g71
NtRp2658
(dp2659
g74
(dp2660
g94
g95
ssg83
g2654
sg76
(lp2661
S'HTTP_ACCEPT_LANGUAGE'
p2662
asbag69
(g90
g71
NtRp2663
(dp2664
g74
(dp2665
g101
g102
ssg83
g2654
sg76
(lp2666
S':'
asbag69
(g90
g71
NtRp2667
(dp2668
g74
(dp2669
sg83
g2654
sg76
(lp2670
g69
(g70
g71
NtRp2671
(dp2672
g74
(dp2673
g82
I3
ssg83
g2667
sg76
(lp2674
g1082
asbasbasbag69
(g85
g71
NtRp2675
(dp2676
g74
(dp2677
sg83
g2587
sg76
(lp2678
g69
(g90
g71
NtRp2679
(dp2680
g74
(dp2681
g94
g95
ssg83
g2675
sg76
(lp2682
S'HTTP_CONNECTION'
p2683
asbag69
(g90
g71
NtRp2684
(dp2685
g74
(dp2686
g101
g102
ssg83
g2675
sg76
(lp2687
S':'
asbag69
(g90
g71
NtRp2688
(dp2689
g74
(dp2690
sg83
g2675
sg76
(lp2691
g69
(g70
g71
NtRp2692
(dp2693
g74
(dp2694
g82
I3
ssg83
g2688
sg76
(lp2695
g1104
asbasbasbag69
(g85
g71
NtRp2696
(dp2697
g74
(dp2698
sg83
g2587
sg76
(lp2699
g69
(g90
g71
NtRp2700
(dp2701
g74
(dp2702
g94
g95
ssg83
g2696
sg76
(lp2703
S'HTTP_COOKIE'
p2704
asbag69
(g90
g71
NtRp2705
(dp2706
g74
(dp2707
g101
g102
ssg83
g2696
sg76
(lp2708
S':'
asbag69
(g90
g71
NtRp2709
(dp2710
g74
(dp2711
sg83
g2696
sg76
(lp2712
g69
(g70
g71
NtRp2713
(dp2714
g74
(dp2715
g82
I3
ssg83
g2709
sg76
(lp2716
g1126
asbasbasbag69
(g85
g71
NtRp2717
(dp2718
g74
(dp2719
sg83
g2587
sg76
(lp2720
g69
(g90
g71
NtRp2721
(dp2722
g74
(dp2723
g94
g95
ssg83
g2717
sg76
(lp2724
S'HTTP_HOST'
p2725
asbag69
(g90
g71
NtRp2726
(dp2727
g74
(dp2728
g101
g102
ssg83
g2717
sg76
(lp2729
S':'
asbag69
(g90
g71
NtRp2730
(dp2731
g74
(dp2732
sg83
g2717
sg76
(lp2733
g69
(g70
g71
NtRp2734
(dp2735
g74
(dp2736
g82
I3
ssg83
g2730
sg76
(lp2737
g1148
asbasbasbag69
(g85
g71
NtRp2738
(dp2739
g74
(dp2740
sg83
g2587
sg76
(lp2741
g69
(g90
g71
NtRp2742
(dp2743
g74
(dp2744
g94
g95
ssg83
g2738
sg76
(lp2745
S'HTTP_REFERER'
p2746
asbag69
(g90
g71
NtRp2747
(dp2748
g74
(dp2749
g101
g102
ssg83
g2738
sg76
(lp2750
S':'
asbag69
(g90
g71
NtRp2751
(dp2752
g74
(dp2753
sg83
g2738
sg76
(lp2754
g69
(g70
g71
NtRp2755
(dp2756
g74
(dp2757
g82
I3
ssg83
g2751
sg76
(lp2758
g1170
asbasbasbag69
(g85
g71
NtRp2759
(dp2760
g74
(dp2761
sg83
g2587
sg76
(lp2762
g69
(g90
g71
NtRp2763
(dp2764
g74
(dp2765
g94
g95
ssg83
g2759
sg76
(lp2766
S'HTTP_USER_AGENT'
p2767
asbag69
(g90
g71
NtRp2768
(dp2769
g74
(dp2770
g101
g102
ssg83
g2759
sg76
(lp2771
S':'
asbag69
(g90
g71
NtRp2772
(dp2773
g74
(dp2774
sg83
g2759
sg76
(lp2775
g69
(g70
g71
NtRp2776
(dp2777
g74
(dp2778
g82
I3
ssg83
g2772
sg76
(lp2779
g1192
asbasbasbag69
(g85
g71
NtRp2780
(dp2781
g74
(dp2782
sg83
g2587
sg76
(lp2783
g69
(g90
g71
NtRp2784
(dp2785
g74
(dp2786
g94
g95
ssg83
g2780
sg76
(lp2787
S'HTTP_X_REQUESTED_WITH'
p2788
asbag69
(g90
g71
NtRp2789
(dp2790
g74
(dp2791
g101
g102
ssg83
g2780
sg76
(lp2792
S':'
asbag69
(g90
g71
NtRp2793
(dp2794
g74
(dp2795
sg83
g2780
sg76
(lp2796
g69
(g70
g71
NtRp2797
(dp2798
g74
(dp2799
g82
I3
ssg83
g2793
sg76
(lp2800
g1214
asbasbasbag69
(g85
g71
NtRp2801
(dp2802
g74
(dp2803
sg83
g2587
sg76
(lp2804
g69
(g90
g71
NtRp2805
(dp2806
g74
(dp2807
g94
g95
ssg83
g2801
sg76
(lp2808
S'PATH_INFO'
p2809
asbag69
(g90
g71
NtRp2810
(dp2811
g74
(dp2812
g101
g102
ssg83
g2801
sg76
(lp2813
S':'
asbag69
(g90
g71
NtRp2814
(dp2815
g74
(dp2816
sg83
g2801
sg76
(lp2817
g69
(g70
g71
NtRp2818
(dp2819
g74
(dp2820
g82
I3
ssg83
g2814
sg76
(lp2821
g1278
asbasbasbag69
(g85
g71
NtRp2822
(dp2823
g74
(dp2824
sg83
g2587
sg76
(lp2825
g69
(g90
g71
NtRp2826
(dp2827
g74
(dp2828
g94
g95
ssg83
g2822
sg76
(lp2829
S'QUERY_STRING'
p2830
asbag69
(g90
g71
NtRp2831
(dp2832
g74
(dp2833
g101
g102
ssg83
g2822
sg76
(lp2834
S':'
asbag69
(g90
g71
NtRp2835
(dp2836
g74
(dp2837
sg83
g2822
sg76
(lp2838
g69
(g70
g71
NtRp2839
(dp2840
g74
(dp2841
g82
I3
ssg83
g2835
sg76
(lp2842
g1300
asbasbasbag69
(g85
g71
NtRp2843
(dp2844
g74
(dp2845
sg83
g2587
sg76
(lp2846
g69
(g90
g71
NtRp2847
(dp2848
g74
(dp2849
g94
g95
ssg83
g2843
sg76
(lp2850
S'REMOTE_ADDR'
p2851
asbag69
(g90
g71
NtRp2852
(dp2853
g74
(dp2854
g101
g102
ssg83
g2843
sg76
(lp2855
S':'
asbag69
(g90
g71
NtRp2856
(dp2857
g74
(dp2858
sg83
g2843
sg76
(lp2859
g69
(g70
g71
NtRp2860
(dp2861
g74
(dp2862
g82
I3
ssg83
g2856
sg76
(lp2863
g202
asbasbasbag69
(g85
g71
NtRp2864
(dp2865
g74
(dp2866
sg83
g2587
sg76
(lp2867
g69
(g90
g71
NtRp2868
(dp2869
g74
(dp2870
g94
g95
ssg83
g2864
sg76
(lp2871
S'REMOTE_PORT'
p2872
asbag69
(g90
g71
NtRp2873
(dp2874
g74
(dp2875
g101
g102
ssg83
g2864
sg76
(lp2876
S':'
asbag69
(g90
g71
NtRp2877
(dp2878
g74
(dp2879
sg83
g2864
sg76
(lp2880
g69
(g70
g71
NtRp2881
(dp2882
g74
(dp2883
g82
I3
ssg83
g2877
sg76
(lp2884
g1343
asbasbasbag69
(g85
g71
NtRp2885
(dp2886
g74
(dp2887
sg83
g2587
sg76
(lp2888
g69
(g90
g71
NtRp2889
(dp2890
g74
(dp2891
g94
g95
ssg83
g2885
sg76
(lp2892
S'REQUEST_METHOD'
p2893
asbag69
(g90
g71
NtRp2894
(dp2895
g74
(dp2896
g101
g102
ssg83
g2885
sg76
(lp2897
S':'
asbag69
(g90
g71
NtRp2898
(dp2899
g74
(dp2900
sg83
g2885
sg76
(lp2901
g69
(g70
g71
NtRp2902
(dp2903
g74
(dp2904
g82
I3
ssg83
g2898
sg76
(lp2905
g1365
asbasbasbag69
(g85
g71
NtRp2906
(dp2907
g74
(dp2908
sg83
g2587
sg76
(lp2909
g69
(g90
g71
NtRp2910
(dp2911
g74
(dp2912
g94
g95
ssg83
g2906
sg76
(lp2913
S'SCRIPT_NAME'
p2914
asbag69
(g90
g71
NtRp2915
(dp2916
g74
(dp2917
g101
g102
ssg83
g2906
sg76
(lp2918
S':'
asbag69
(g90
g71
NtRp2919
(dp2920
g74
(dp2921
sg83
g2906
sg76
(lp2922
g69
(g70
g71
NtRp2923
(dp2924
g74
(dp2925
g82
I3
ssg83
g2919
sg76
(lp2926
S''
asbasbasbag69
(g85
g71
NtRp2927
(dp2928
g74
(dp2929
sg83
g2587
sg76
(lp2930
g69
(g90
g71
NtRp2931
(dp2932
g74
(dp2933
g94
g95
ssg83
g2927
sg76
(lp2934
S'SERVER_NAME'
p2935
asbag69
(g90
g71
NtRp2936
(dp2937
g74
(dp2938
g101
g102
ssg83
g2927
sg76
(lp2939
S':'
asbag69
(g90
g71
NtRp2940
(dp2941
g74
(dp2942
sg83
g2927
sg76
(lp2943
g69
(g70
g71
NtRp2944
(dp2945
g74
(dp2946
g82
I3
ssg83
g2940
sg76
(lp2947
g1408
asbasbasbag69
(g85
g71
NtRp2948
(dp2949
g74
(dp2950
sg83
g2587
sg76
(lp2951
g69
(g90
g71
NtRp2952
(dp2953
g74
(dp2954
g94
g95
ssg83
g2948
sg76
(lp2955
S'SERVER_PORT'
p2956
asbag69
(g90
g71
NtRp2957
(dp2958
g74
(dp2959
g101
g102
ssg83
g2948
sg76
(lp2960
S':'
asbag69
(g90
g71
NtRp2961
(dp2962
g74
(dp2963
sg83
g2948
sg76
(lp2964
g69
(g70
g71
NtRp2965
(dp2966
g74
(dp2967
g82
I3
ssg83
g2961
sg76
(lp2968
g1430
asbasbasbag69
(g85
g71
NtRp2969
(dp2970
g74
(dp2971
sg83
g2587
sg76
(lp2972
g69
(g90
g71
NtRp2973
(dp2974
g74
(dp2975
g94
g95
ssg83
g2969
sg76
(lp2976
S'SERVER_PROTOCOL'
p2977
asbag69
(g90
g71
NtRp2978
(dp2979
g74
(dp2980
g101
g102
ssg83
g2969
sg76
(lp2981
S':'
asbag69
(g90
g71
NtRp2982
(dp2983
g74
(dp2984
sg83
g2969
sg76
(lp2985
g69
(g70
g71
NtRp2986
(dp2987
g74
(dp2988
g82
I3
ssg83
g2982
sg76
(lp2989
g1452
asbasbasbag69
(g85
g71
NtRp2990
(dp2991
g74
(dp2992
sg83
g2587
sg76
(lp2993
g69
(g90
g71
NtRp2994
(dp2995
g74
(dp2996
g94
g95
ssg83
g2990
sg76
(lp2997
S'SERVER_SOFTWARE'
p2998
asbag69
(g90
g71
NtRp2999
(dp3000
g74
(dp3001
g101
g102
ssg83
g2990
sg76
(lp3002
S':'
asbag69
(g90
g71
NtRp3003
(dp3004
g74
(dp3005
sg83
g2990
sg76
(lp3006
g69
(g70
g71
NtRp3007
(dp3008
g74
(dp3009
g82
I3
ssg83
g3003
sg76
(lp3010
g1474
asbasbasbag69
(g85
g71
NtRp3011
(dp3012
g74
(dp3013
sg83
g2587
sg76
(lp3014
g69
(g90
g71
NtRp3015
(dp3016
g74
(dp3017
g94
g95
ssg83
g3011
sg76
(lp3018
S'wsgi.errors'
p3019
asbag69
(g90
g71
NtRp3020
(dp3021
g74
(dp3022
g101
g102
ssg83
g3011
sg76
(lp3023
S':'
asbag69
(g90
g71
NtRp3024
(dp3025
g74
(dp3026
sg83
g3011
sg76
(lp3027
g69
(g70
g71
NtRp3028
(dp3029
g74
(dp3030
g82
I3
ssg83
g3024
sg76
(lp3031
S"<open file '<stderr>', mode 'w' at 0x7f9b1b31e1e0>"
p3032
asbasbasbag69
(g85
g71
NtRp3033
(dp3034
g74
(dp3035
sg83
g2587
sg76
(lp3036
g69
(g90
g71
NtRp3037
(dp3038
g74
(dp3039
g94
g95
ssg83
g3033
sg76
(lp3040
S'wsgi.file_wrapper'
p3041
asbag69
(g90
g71
NtRp3042
(dp3043
g74
(dp3044
g101
g102
ssg83
g3033
sg76
(lp3045
S':'
asbag69
(g90
g71
NtRp3046
(dp3047
g74
(dp3048
sg83
g3033
sg76
(lp3049
g69
(g70
g71
NtRp3050
(dp3051
g74
(dp3052
g82
I3
ssg83
g3046
sg76
(lp3053
S'<class wsgiref.util.FileWrapper at 0x296a4d0>'
p3054
asbasbasbag69
(g85
g71
NtRp3055
(dp3056
g74
(dp3057
sg83
g2587
sg76
(lp3058
g69
(g90
g71
NtRp3059
(dp3060
g74
(dp3061
g94
g95
ssg83
g3055
sg76
(lp3062
S'wsgi.input'
p3063
asbag69
(g90
g71
NtRp3064
(dp3065
g74
(dp3066
g101
g102
ssg83
g3055
sg76
(lp3067
S':'
asbag69
(g90
g71
NtRp3068
(dp3069
g74
(dp3070
sg83
g3055
sg76
(lp3071
g69
(g70
g71
NtRp3072
(dp3073
g74
(dp3074
g82
I3
ssg83
g3068
sg76
(lp3075
S'<cStringIO.StringO object at 0x42ccbc8>'
p3076
asbasbasbag69
(g85
g71
NtRp3077
(dp3078
g74
(dp3079
sg83
g2587
sg76
(lp3080
g69
(g90
g71
NtRp3081
(dp3082
g74
(dp3083
g94
g95
ssg83
g3077
sg76
(lp3084
S'wsgi.multiprocess'
p3085
asbag69
(g90
g71
NtRp3086
(dp3087
g74
(dp3088
g101
g102
ssg83
g3077
sg76
(lp3089
S':'
asbag69
(g90
g71
NtRp3090
(dp3091
g74
(dp3092
sg83
g3077
sg76
(lp3093
g69
(g70
g71
NtRp3094
(dp3095
g74
(dp3096
g82
I3
ssg83
g3090
sg76
(lp3097
g972
asbasbasbag69
(g85
g71
NtRp3098
(dp3099
g74
(dp3100
sg83
g2587
sg76
(lp3101
g69
(g90
g71
NtRp3102
(dp3103
g74
(dp3104
g94
g95
ssg83
g3098
sg76
(lp3105
S'wsgi.multithread'
p3106
asbag69
(g90
g71
NtRp3107
(dp3108
g74
(dp3109
g101
g102
ssg83
g3098
sg76
(lp3110
S':'
asbag69
(g90
g71
NtRp3111
(dp3112
g74
(dp3113
sg83
g3098
sg76
(lp3114
g69
(g70
g71
NtRp3115
(dp3116
g74
(dp3117
g82
I3
ssg83
g3111
sg76
(lp3118
g112
asbasbasbag69
(g85
g71
NtRp3119
(dp3120
g74
(dp3121
sg83
g2587
sg76
(lp3122
g69
(g90
g71
NtRp3123
(dp3124
g74
(dp3125
g94
g95
ssg83
g3119
sg76
(lp3126
S'wsgi.run_once'
p3127
asbag69
(g90
g71
NtRp3128
(dp3129
g74
(dp3130
g101
g102
ssg83
g3119
sg76
(lp3131
S':'
asbag69
(g90
g71
NtRp3132
(dp3133
g74
(dp3134
sg83
g3119
sg76
(lp3135
g69
(g70
g71
NtRp3136
(dp3137
g74
(dp3138
g82
I3
ssg83
g3132
sg76
(lp3139
g972
asbasbasbag69
(g85
g71
NtRp3140
(dp3141
g74
(dp3142
sg83
g2587
sg76
(lp3143
g69
(g90
g71
NtRp3144
(dp3145
g74
(dp3146
g94
g95
ssg83
g3140
sg76
(lp3147
S'wsgi.url_scheme'
p3148
asbag69
(g90
g71
NtRp3149
(dp3150
g74
(dp3151
g101
g102
ssg83
g3140
sg76
(lp3152
S':'
asbag69
(g90
g71
NtRp3153
(dp3154
g74
(dp3155
sg83
g3140
sg76
(lp3156
g69
(g70
g71
NtRp3157
(dp3158
g74
(dp3159
g82
I3
ssg83
g3153
sg76
(lp3160
g1756
asbasbasbag69
(g85
g71
NtRp3161
(dp3162
g74
(dp3163
sg83
g2587
sg76
(lp3164
g69
(g90
g71
NtRp3165
(dp3166
g74
(dp3167
g94
g95
ssg83
g3161
sg76
(lp3168
S'wsgi.version'
p3169
asbag69
(g90
g71
NtRp3170
(dp3171
g74
(dp3172
g101
g102
ssg83
g3161
sg76
(lp3173
S':'
asbag69
(g90
g71
NtRp3174
(dp3175
g74
(dp3176
sg83
g3161
sg76
(lp3177
g69
(g70
g71
NtRp3178
(dp3179
g74
(dp3180
g82
I3
ssg83
g3174
sg76
(lp3181
S'1'
asbasbasbasbasbasbasbasbasbasbasbasbasbsS'frames'
p3182
(lp3183
(dp3184
S'file'
p3185
S'/home/andromeda/work/graphing/web2py/gluon/restricted.py'
p3186
sS'dump'
p3187
(dp3188
S'code'
p3189
S'\'\\n\\\'\\\'\\\'\\n1. Store data as\\n    {"timestamp":<>, "name...me,\\n    \\n}\\n\\nresponse._vars=response._caller(api)\\n\''
p3190
sS'layer'
p3191
S"'/home/andromeda/work/graphing/web2py/applications/testtest/controllers/utils.py'"
p3192
sS'global compile2'
p3193
S'<function compile2>'
p3194
sS'ccode'
p3195
S'undefined'
p3196
ssS'lnum'
p3197
I203
sS'lines'
p3198
(dp3199
I198
S"    environment['__file__'] = layer"
p3200
sI199
S'    try:'
p3201
sI200
S'        if type(code) == types.CodeType:'
p3202
sI201
S'            ccode = code'
p3203
sI202
S'        else:'
p3204
sI203
S'            ccode = compile2(code,layer)'
p3205
sI204
S'        exec ccode in environment'
p3206
sI205
S'    except HTTP:'
p3207
sI206
S'        raise'
p3208
sI207
S'    except RestrictedError:'
p3209
ssS'call'
p3210
S'(code=\'\\n\\\'\\\'\\\'\\n1. Store data as\\n    {"timestamp":<>, "name...me,\\n    \\n}\\n\\nresponse._vars=response._caller(api)\\n\', environment={\'A\': <class \'gluon.html.A\'>, \'Auth\': <class \'gluon.tools.Auth\'>, \'B\': <class \'gluon.html.B\'>, \'BEAUTIFY\': <class \'gluon.html.BEAUTIFY\'>, \'BODY\': <class \'gluon.html.BODY\'>, \'BR\': <class \'gluon.html.BR\'>, \'BUTTON\': <class \'gluon.html.BUTTON\'>, \'CAT\': <class \'gluon.html.CAT\'>, \'CENTER\': <class \'gluon.html.CENTER\'>, \'CLEANUP\': <class \'gluon.validators.CLEANUP\'>, ...}, layer=\'/home/andromeda/work/graphing/web2py/applications/testtest/controllers/utils.py\')'
p3211
sS'func'
p3212
S'restricted'
p3213
sa(dp3214
g3185
S'/home/andromeda/work/graphing/web2py/gluon/restricted.py'
p3215
sg3187
(dp3216
S'builtincompile'
p3217
S'<built-in function compile>'
p3218
sS'code'
p3219
S'\'\\n\\\'\\\'\\\'\\n1. Store data as\\n    {"timestamp":<>, "name...me,\\n    \\n}\\n\\nresponse._vars=response._caller(api)\\n\''
p3220
sS'code.rstrip'
p3221
S'<built-in method rstrip of str object>'
p3222
sS').replace'
p3223
g3196
sS'layer'
p3224
S"'/home/andromeda/work/graphing/web2py/applications/testtest/controllers/utils.py'"
p3225
ssg3197
I189
sg3198
(dp3226
I192
S'    """'
p3227
sI193
S'    runs code in environment and returns the output. if an exception occurs'
p3228
sI184
S''
sI185
S'def compile2(code,layer):'
p3229
sI186
S'    """'
p3230
sI187
S"    The +'\\n' is necessary else compile fails when code ends in a comment."
p3231
sI188
S'    """'
p3232
sI189
S"    return compile(code.rstrip().replace('\\r\\n','\\n')+'\\n', layer, 'exec')"
p3233
sI190
S''
sI191
S"def restricted(code, environment=None, layer='Unknown'):"
p3234
ssg3210
S'(code=\'\\n\\\'\\\'\\\'\\n1. Store data as\\n    {"timestamp":<>, "name...me,\\n    \\n}\\n\\nresponse._vars=response._caller(api)\\n\', layer=\'/home/andromeda/work/graphing/web2py/applications/testtest/controllers/utils.py\')'
p3235
sg3212
S'compile2'
p3236
sasS'pyver'
p3237
S'Python 2.6.5: /usr/bin/python'
p3238
sS'session'
p3239
g69
(g70
g71
NtRp3240
(dp3241
g74
(dp3242
sg76
(lp3243
g69
(g78
g71
NtRp3244
(dp3245
g74
(dp3246
g82
I5
ssg83
Nsg76
(lp3247
sbasbsS'etype'
p3248
S"<type 'exceptions.SyntaxError'>"
p3249
sS'date'
p3250
S'Sat Feb 25 18:18:10 2012'
p3251
sS'response'
p3252
g69
(g70
g71
NtRp3253
(dp3254
g74
(dp3255
sg76
(lp3256
g69
(g78
g71
NtRp3257
(dp3258
g74
(dp3259
g82
I5
ssg83
Nsg76
(lp3260
g69
(g85
g71
NtRp3261
(dp3262
g74
(dp3263
sg83
g3257
sg76
(lp3264
g69
(g90
g71
NtRp3265
(dp3266
g74
(dp3267
g94
g95
ssg83
g3261
sg76
(lp3268
g167
asbag69
(g90
g71
NtRp3269
(dp3270
g74
(dp3271
g101
g102
ssg83
g3261
sg76
(lp3272
S':'
asbag69
(g90
g71
NtRp3273
(dp3274
g74
(dp3275
sg83
g3261
sg76
(lp3276
g69
(g70
g71
NtRp3277
(dp3278
g74
(dp3279
g82
I5
ssg83
g3273
sg76
(lp3280
S'<cStringIO.StringO object at 0x3a82618>'
p3281
asbasbasbag69
(g85
g71
NtRp3282
(dp3283
g74
(dp3284
sg83
g3257
sg76
(lp3285
g69
(g90
g71
NtRp3286
(dp3287
g74
(dp3288
g94
g95
ssg83
g3282
sg76
(lp3289
g233
asbag69
(g90
g71
NtRp3290
(dp3291
g74
(dp3292
g101
g102
ssg83
g3282
sg76
(lp3293
S':'
asbag69
(g90
g71
NtRp3294
(dp3295
g74
(dp3296
sg83
g3282
sg76
(lp3297
g69
(g70
g71
NtRp3298
(dp3299
g74
(dp3300
g82
I5
ssg83
g3294
sg76
(lp3301
g69
(g78
g71
NtRp3302
(dp3303
g74
(dp3304
g82
I4
ssg83
Nsg76
(lp3305
g69
(g85
g71
NtRp3306
(dp3307
g74
(dp3308
sg83
g3302
sg76
(lp3309
g69
(g90
g71
NtRp3310
(dp3311
g74
(dp3312
g94
g95
ssg83
g3306
sg76
(lp3313
S'session_id_testtest'
p3314
asbag69
(g90
g71
NtRp3315
(dp3316
g74
(dp3317
g101
g102
ssg83
g3306
sg76
(lp3318
S':'
asbag69
(g90
g71
NtRp3319
(dp3320
g74
(dp3321
sg83
g3306
sg76
(lp3322
g69
(g70
g71
NtRp3323
(dp3324
g74
(dp3325
g82
I4
ssg83
g3319
sg76
(lp3326
g69
(g78
g71
NtRp3327
(dp3328
g74
(dp3329
g82
I3
ssg83
Nsg76
(lp3330
g69
(g85
g71
NtRp3331
(dp3332
g74
(dp3333
sg83
g3327
sg76
(lp3334
g69
(g90
g71
NtRp3335
(dp3336
g74
(dp3337
g94
g95
ssg83
g3331
sg76
(lp3338
g283
asbag69
(g90
g71
NtRp3339
(dp3340
g74
(dp3341
g101
g102
ssg83
g3331
sg76
(lp3342
S':'
asbag69
(g90
g71
NtRp3343
(dp3344
g74
(dp3345
sg83
g3331
sg76
(lp3346
g69
(g70
g71
NtRp3347
(dp3348
g74
(dp3349
g82
I3
ssg83
g3343
sg76
(lp3350
S''
asbasbasbag69
(g85
g71
NtRp3351
(dp3352
g74
(dp3353
sg83
g3327
sg76
(lp3354
g69
(g90
g71
NtRp3355
(dp3356
g74
(dp3357
g94
g95
ssg83
g3351
sg76
(lp3358
g304
asbag69
(g90
g71
NtRp3359
(dp3360
g74
(dp3361
g101
g102
ssg83
g3351
sg76
(lp3362
S':'
asbag69
(g90
g71
NtRp3363
(dp3364
g74
(dp3365
sg83
g3351
sg76
(lp3366
g69
(g70
g71
NtRp3367
(dp3368
g74
(dp3369
g82
I3
ssg83
g3363
sg76
(lp3370
S''
asbasbasbag69
(g85
g71
NtRp3371
(dp3372
g74
(dp3373
sg83
g3327
sg76
(lp3374
g69
(g90
g71
NtRp3375
(dp3376
g74
(dp3377
g94
g95
ssg83
g3371
sg76
(lp3378
g325
asbag69
(g90
g71
NtRp3379
(dp3380
g74
(dp3381
g101
g102
ssg83
g3371
sg76
(lp3382
S':'
asbag69
(g90
g71
NtRp3383
(dp3384
g74
(dp3385
sg83
g3371
sg76
(lp3386
g69
(g70
g71
NtRp3387
(dp3388
g74
(dp3389
g82
I3
ssg83
g3383
sg76
(lp3390
S''
asbasbasbag69
(g85
g71
NtRp3391
(dp3392
g74
(dp3393
sg83
g3327
sg76
(lp3394
g69
(g90
g71
NtRp3395
(dp3396
g74
(dp3397
g94
g95
ssg83
g3391
sg76
(lp3398
g346
asbag69
(g90
g71
NtRp3399
(dp3400
g74
(dp3401
g101
g102
ssg83
g3391
sg76
(lp3402
S':'
asbag69
(g90
g71
NtRp3403
(dp3404
g74
(dp3405
sg83
g3391
sg76
(lp3406
g69
(g70
g71
NtRp3407
(dp3408
g74
(dp3409
g82
I3
ssg83
g3403
sg76
(lp3410
S''
asbasbasbag69
(g85
g71
NtRp3411
(dp3412
g74
(dp3413
sg83
g3327
sg76
(lp3414
g69
(g90
g71
NtRp3415
(dp3416
g74
(dp3417
g94
g95
ssg83
g3411
sg76
(lp3418
g367
asbag69
(g90
g71
NtRp3419
(dp3420
g74
(dp3421
g101
g102
ssg83
g3411
sg76
(lp3422
S':'
asbag69
(g90
g71
NtRp3423
(dp3424
g74
(dp3425
sg83
g3411
sg76
(lp3426
g69
(g70
g71
NtRp3427
(dp3428
g74
(dp3429
g82
I3
ssg83
g3423
sg76
(lp3430
S''
asbasbasbag69
(g85
g71
NtRp3431
(dp3432
g74
(dp3433
sg83
g3327
sg76
(lp3434
g69
(g90
g71
NtRp3435
(dp3436
g74
(dp3437
g94
g95
ssg83
g3431
sg76
(lp3438
g388
asbag69
(g90
g71
NtRp3439
(dp3440
g74
(dp3441
g101
g102
ssg83
g3431
sg76
(lp3442
S':'
asbag69
(g90
g71
NtRp3443
(dp3444
g74
(dp3445
sg83
g3431
sg76
(lp3446
g69
(g70
g71
NtRp3447
(dp3448
g74
(dp3449
g82
I3
ssg83
g3443
sg76
(lp3450
S'/'
asbasbasbag69
(g85
g71
NtRp3451
(dp3452
g74
(dp3453
sg83
g3327
sg76
(lp3454
g69
(g90
g71
NtRp3455
(dp3456
g74
(dp3457
g94
g95
ssg83
g3451
sg76
(lp3458
g409
asbag69
(g90
g71
NtRp3459
(dp3460
g74
(dp3461
g101
g102
ssg83
g3451
sg76
(lp3462
S':'
asbag69
(g90
g71
NtRp3463
(dp3464
g74
(dp3465
sg83
g3451
sg76
(lp3466
g69
(g70
g71
NtRp3467
(dp3468
g74
(dp3469
g82
I3
ssg83
g3463
sg76
(lp3470
S''
asbasbasbag69
(g85
g71
NtRp3471
(dp3472
g74
(dp3473
sg83
g3327
sg76
(lp3474
g69
(g90
g71
NtRp3475
(dp3476
g74
(dp3477
g94
g95
ssg83
g3471
sg76
(lp3478
g430
asbag69
(g90
g71
NtRp3479
(dp3480
g74
(dp3481
g101
g102
ssg83
g3471
sg76
(lp3482
S':'
asbag69
(g90
g71
NtRp3483
(dp3484
g74
(dp3485
sg83
g3471
sg76
(lp3486
g69
(g70
g71
NtRp3487
(dp3488
g74
(dp3489
g82
I3
ssg83
g3483
sg76
(lp3490
S''
asbasbasbasbasbasbasbasbasbasbasbag69
(g85
g71
NtRp3491
(dp3492
g74
(dp3493
sg83
g3257
sg76
(lp3494
g69
(g90
g71
NtRp3495
(dp3496
g74
(dp3497
g94
g95
ssg83
g3491
sg76
(lp3498
S'files'
p3499
asbag69
(g90
g71
NtRp3500
(dp3501
g74
(dp3502
g101
g102
ssg83
g3491
sg76
(lp3503
S':'
asbag69
(g90
g71
NtRp3504
(dp3505
g74
(dp3506
sg83
g3491
sg76
(lp3507
g69
(g70
g71
NtRp3508
(dp3509
g74
(dp3510
g82
I5
ssg83
g3504
sg76
(lp3511
g69
(g78
g71
NtRp3512
(dp3513
g74
(dp3514
g82
I4
ssg83
Nsg76
(lp3515
sbasbasbasbag69
(g85
g71
NtRp3516
(dp3517
g74
(dp3518
sg83
g3257
sg76
(lp3519
g69
(g90
g71
NtRp3520
(dp3521
g74
(dp3522
g94
g95
ssg83
g3516
sg76
(lp3523
S'flash'
p3524
asbag69
(g90
g71
NtRp3525
(dp3526
g74
(dp3527
g101
g102
ssg83
g3516
sg76
(lp3528
S':'
asbag69
(g90
g71
NtRp3529
(dp3530
g74
(dp3531
sg83
g3516
sg76
(lp3532
g69
(g70
g71
NtRp3533
(dp3534
g74
(dp3535
g82
I5
ssg83
g3529
sg76
(lp3536
S''
asbasbasbag69
(g85
g71
NtRp3537
(dp3538
g74
(dp3539
sg83
g3257
sg76
(lp3540
g69
(g90
g71
NtRp3541
(dp3542
g74
(dp3543
g94
g95
ssg83
g3537
sg76
(lp3544
S'generic_patterns'
p3545
asbag69
(g90
g71
NtRp3546
(dp3547
g74
(dp3548
g101
g102
ssg83
g3537
sg76
(lp3549
S':'
asbag69
(g90
g71
NtRp3550
(dp3551
g74
(dp3552
sg83
g3537
sg76
(lp3553
g69
(g70
g71
NtRp3554
(dp3555
g74
(dp3556
g82
I5
ssg83
g3550
sg76
(lp3557
g69
(g78
g71
NtRp3558
(dp3559
g74
(dp3560
g82
I4
ssg83
Nsg76
(lp3561
g69
(g85
g71
NtRp3562
(dp3563
g74
(dp3564
sg83
g3558
sg76
(lp3565
g69
(g90
g71
NtRp3566
(dp3567
g74
(dp3568
sg83
g3562
sg76
(lp3569
g69
(g70
g71
NtRp3570
(dp3571
g74
(dp3572
g82
I4
ssg83
g3566
sg76
(lp3573
S'*'
asbasbasbasbasbasbasbag69
(g85
g71
NtRp3574
(dp3575
g74
(dp3576
sg83
g3257
sg76
(lp3577
g69
(g90
g71
NtRp3578
(dp3579
g74
(dp3580
g94
g95
ssg83
g3574
sg76
(lp3581
S'headers'
p3582
asbag69
(g90
g71
NtRp3583
(dp3584
g74
(dp3585
g101
g102
ssg83
g3574
sg76
(lp3586
S':'
asbag69
(g90
g71
NtRp3587
(dp3588
g74
(dp3589
sg83
g3574
sg76
(lp3590
g69
(g70
g71
NtRp3591
(dp3592
g74
(dp3593
g82
I5
ssg83
g3587
sg76
(lp3594
g69
(g78
g71
NtRp3595
(dp3596
g74
(dp3597
g82
I4
ssg83
Nsg76
(lp3598
g69
(g85
g71
NtRp3599
(dp3600
g74
(dp3601
sg83
g3595
sg76
(lp3602
g69
(g90
g71
NtRp3603
(dp3604
g74
(dp3605
g94
g95
ssg83
g3599
sg76
(lp3606
S'Cache-Control'
p3607
asbag69
(g90
g71
NtRp3608
(dp3609
g74
(dp3610
g101
g102
ssg83
g3599
sg76
(lp3611
S':'
asbag69
(g90
g71
NtRp3612
(dp3613
g74
(dp3614
sg83
g3599
sg76
(lp3615
g69
(g70
g71
NtRp3616
(dp3617
g74
(dp3618
g82
I4
ssg83
g3612
sg76
(lp3619
S'no-store, no-cache, must-revalidate, post-check=0, pre-check=0'
p3620
asbasbasbag69
(g85
g71
NtRp3621
(dp3622
g74
(dp3623
sg83
g3595
sg76
(lp3624
g69
(g90
g71
NtRp3625
(dp3626
g74
(dp3627
g94
g95
ssg83
g3621
sg76
(lp3628
S'Content-Type'
p3629
asbag69
(g90
g71
NtRp3630
(dp3631
g74
(dp3632
g101
g102
ssg83
g3621
sg76
(lp3633
S':'
asbag69
(g90
g71
NtRp3634
(dp3635
g74
(dp3636
sg83
g3621
sg76
(lp3637
g69
(g70
g71
NtRp3638
(dp3639
g74
(dp3640
g82
I4
ssg83
g3634
sg76
(lp3641
S'text/html; charset=utf-8'
p3642
asbasbasbag69
(g85
g71
NtRp3643
(dp3644
g74
(dp3645
sg83
g3595
sg76
(lp3646
g69
(g90
g71
NtRp3647
(dp3648
g74
(dp3649
g94
g95
ssg83
g3643
sg76
(lp3650
S'Expires'
p3651
asbag69
(g90
g71
NtRp3652
(dp3653
g74
(dp3654
g101
g102
ssg83
g3643
sg76
(lp3655
S':'
asbag69
(g90
g71
NtRp3656
(dp3657
g74
(dp3658
sg83
g3643
sg76
(lp3659
g69
(g70
g71
NtRp3660
(dp3661
g74
(dp3662
g82
I4
ssg83
g3656
sg76
(lp3663
S'Sat, 25 Feb 2012 12:48:10 GMT'
p3664
asbasbasbag69
(g85
g71
NtRp3665
(dp3666
g74
(dp3667
sg83
g3595
sg76
(lp3668
g69
(g90
g71
NtRp3669
(dp3670
g74
(dp3671
g94
g95
ssg83
g3665
sg76
(lp3672
S'Pragma'
p3673
asbag69
(g90
g71
NtRp3674
(dp3675
g74
(dp3676
g101
g102
ssg83
g3665
sg76
(lp3677
S':'
asbag69
(g90
g71
NtRp3678
(dp3679
g74
(dp3680
sg83
g3665
sg76
(lp3681
g69
(g70
g71
NtRp3682
(dp3683
g74
(dp3684
g82
I4
ssg83
g3678
sg76
(lp3685
S'no-cache'
p3686
asbasbasbag69
(g85
g71
NtRp3687
(dp3688
g74
(dp3689
sg83
g3595
sg76
(lp3690
g69
(g90
g71
NtRp3691
(dp3692
g74
(dp3693
g94
g95
ssg83
g3687
sg76
(lp3694
S'X-Powered-By'
p3695
asbag69
(g90
g71
NtRp3696
(dp3697
g74
(dp3698
g101
g102
ssg83
g3687
sg76
(lp3699
S':'
asbag69
(g90
g71
NtRp3700
(dp3701
g74
(dp3702
sg83
g3687
sg76
(lp3703
g69
(g70
g71
NtRp3704
(dp3705
g74
(dp3706
g82
I4
ssg83
g3700
sg76
(lp3707
S'web2py'
p3708
asbasbasbasbasbasbasbag69
(g85
g71
NtRp3709
(dp3710
g74
(dp3711
sg83
g3257
sg76
(lp3712
g69
(g90
g71
NtRp3713
(dp3714
g74
(dp3715
g94
g95
ssg83
g3709
sg76
(lp3716
S'menu'
p3717
asbag69
(g90
g71
NtRp3718
(dp3719
g74
(dp3720
g101
g102
ssg83
g3709
sg76
(lp3721
S':'
asbag69
(g90
g71
NtRp3722
(dp3723
g74
(dp3724
sg83
g3709
sg76
(lp3725
g69
(g70
g71
NtRp3726
(dp3727
g74
(dp3728
g82
I5
ssg83
g3722
sg76
(lp3729
g69
(g78
g71
NtRp3730
(dp3731
g74
(dp3732
g82
I4
ssg83
Nsg76
(lp3733
g69
(g85
g71
NtRp3734
(dp3735
g74
(dp3736
sg83
g3730
sg76
(lp3737
g69
(g90
g71
NtRp3738
(dp3739
g74
(dp3740
sg83
g3734
sg76
(lp3741
g69
(g70
g71
NtRp3742
(dp3743
g74
(dp3744
g82
I4
ssg83
g3738
sg76
(lp3745
g69
(g78
g71
NtRp3746
(dp3747
g74
(dp3748
g82
I3
ssg83
Nsg76
(lp3749
g69
(g85
g71
NtRp3750
(dp3751
g74
(dp3752
sg83
g3746
sg76
(lp3753
g69
(g90
g71
NtRp3754
(dp3755
g74
(dp3756
sg83
g3750
sg76
(lp3757
g69
(g70
g71
NtRp3758
(dp3759
g74
(dp3760
g82
I3
ssg83
g3754
sg76
(lp3761
cgluon.languages
lazyT_unpickle
p3762
(S's\x04\x00\x00\x00Home'
tRp3763
asbasbasbag69
(g85
g71
NtRp3764
(dp3765
g74
(dp3766
sg83
g3746
sg76
(lp3767
g69
(g90
g71
NtRp3768
(dp3769
g74
(dp3770
sg83
g3764
sg76
(lp3771
g69
(g70
g71
NtRp3772
(dp3773
g74
(dp3774
g82
I3
ssg83
g3768
sg76
(lp3775
g972
asbasbasbag69
(g85
g71
NtRp3776
(dp3777
g74
(dp3778
sg83
g3746
sg76
(lp3779
g69
(g90
g71
NtRp3780
(dp3781
g74
(dp3782
sg83
g3776
sg76
(lp3783
g69
(g70
g71
NtRp3784
(dp3785
g74
(dp3786
g82
I3
ssg83
g3780
sg76
(lp3787
S'/testtest/default/index'
p3788
asbasbasbag69
(g85
g71
NtRp3789
(dp3790
g74
(dp3791
sg83
g3746
sg76
(lp3792
g69
(g90
g71
NtRp3793
(dp3794
g74
(dp3795
sg83
g3789
sg76
(lp3796
g69
(g70
g71
NtRp3797
(dp3798
g74
(dp3799
g82
I3
ssg83
g3793
sg76
(lp3800
g69
(g78
g71
NtRp3801
(dp3802
g74
(dp3803
g82
I2
ssg83
Nsg76
(lp3804
sbasbasbasbasbasbasbasbag69
(g85
g71
NtRp3805
(dp3806
g74
(dp3807
sg83
g3730
sg76
(lp3808
g69
(g90
g71
NtRp3809
(dp3810
g74
(dp3811
sg83
g3805
sg76
(lp3812
g69
(g70
g71
NtRp3813
(dp3814
g74
(dp3815
g82
I4
ssg83
g3809
sg76
(lp3816
g69
(g78
g71
NtRp3817
(dp3818
g74
(dp3819
g82
I3
ssg83
Nsg76
(lp3820
g69
(g85
g71
NtRp3821
(dp3822
g74
(dp3823
sg83
g3817
sg76
(lp3824
g69
(g90
g71
NtRp3825
(dp3826
g74
(dp3827
sg83
g3821
sg76
(lp3828
g69
(g70
g71
NtRp3829
(dp3830
g74
(dp3831
g82
I3
ssg83
g3825
sg76
(lp3832
g69
(cgluon.html
SPAN
p3833
g71
NtRp3834
(dp3835
g74
(dp3836
g94
S'color:yellow'
p3837
ssg83
Nsg76
(lp3838
g3708
asbasbasbasbag69
(g85
g71
NtRp3839
(dp3840
g74
(dp3841
sg83
g3817
sg76
(lp3842
g69
(g90
g71
NtRp3843
(dp3844
g74
(dp3845
sg83
g3839
sg76
(lp3846
g69
(g70
g71
NtRp3847
(dp3848
g74
(dp3849
g82
I3
ssg83
g3843
sg76
(lp3850
g972
asbasbasbag69
(g85
g71
NtRp3851
(dp3852
g74
(dp3853
sg83
g3817
sg76
(lp3854
g69
(g90
g71
NtRp3855
(dp3856
g74
(dp3857
sg83
g3851
sg76
(lp3858
g69
(g70
g71
NtRp3859
(dp3860
g74
(dp3861
g82
I3
ssg83
g3855
sg76
(lp3862
S'None'
p3863
asbasbasbag69
(g85
g71
NtRp3864
(dp3865
g74
(dp3866
sg83
g3817
sg76
(lp3867
g69
(g90
g71
NtRp3868
(dp3869
g74
(dp3870
sg83
g3864
sg76
(lp3871
g69
(g70
g71
NtRp3872
(dp3873
g74
(dp3874
g82
I3
ssg83
g3868
sg76
(lp3875
g69
(g78
g71
NtRp3876
(dp3877
g74
(dp3878
g82
I2
ssg83
Nsg76
(lp3879
g69
(g85
g71
NtRp3880
(dp3881
g74
(dp3882
sg83
g3876
sg76
(lp3883
g69
(g90
g71
NtRp3884
(dp3885
g74
(dp3886
sg83
g3880
sg76
(lp3887
g69
(g70
g71
NtRp3888
(dp3889
g74
(dp3890
g82
I2
ssg83
g3884
sg76
(lp3891
g69
(g78
g71
NtRp3892
(dp3893
g74
(dp3894
g82
I1
ssg83
Nsg76
(lp3895
g69
(g85
g71
NtRp3896
(dp3897
g74
(dp3898
sg83
g3892
sg76
(lp3899
g69
(g90
g71
NtRp3900
(dp3901
g74
(dp3902
sg83
g3896
sg76
(lp3903
g69
(g70
g71
NtRp3904
(dp3905
g74
(dp3906
g82
I1
ssg83
g3900
sg76
(lp3907
g3762
(S's\x08\x00\x00\x00My Sites'
tRp3908
asbasbasbag69
(g85
g71
NtRp3909
(dp3910
g74
(dp3911
sg83
g3892
sg76
(lp3912
g69
(g90
g71
NtRp3913
(dp3914
g74
(dp3915
sg83
g3909
sg76
(lp3916
g69
(g70
g71
NtRp3917
(dp3918
g74
(dp3919
g82
I1
ssg83
g3913
sg76
(lp3920
I00
asbasbasbag69
(g85
g71
NtRp3921
(dp3922
g74
(dp3923
sg83
g3892
sg76
(lp3924
g69
(g90
g71
NtRp3925
(dp3926
g74
(dp3927
sg83
g3921
sg76
(lp3928
g69
(g70
g71
NtRp3929
(dp3930
g74
(dp3931
g82
I1
ssg83
g3925
sg76
(lp3932
S'/admin/default/site'
p3933
asbasbasbasbasbasbasbag69
(g85
g71
NtRp3934
(dp3935
g74
(dp3936
sg83
g3876
sg76
(lp3937
g69
(g90
g71
NtRp3938
(dp3939
g74
(dp3940
sg83
g3934
sg76
(lp3941
g69
(g70
g71
NtRp3942
(dp3943
g74
(dp3944
g82
I2
ssg83
g3938
sg76
(lp3945
g69
(g78
g71
NtRp3946
(dp3947
g74
(dp3948
g82
I1
ssg83
Nsg76
(lp3949
g69
(g85
g71
NtRp3950
(dp3951
g74
(dp3952
sg83
g3946
sg76
(lp3953
g69
(g90
g71
NtRp3954
(dp3955
g74
(dp3956
sg83
g3950
sg76
(lp3957
g69
(g70
g71
NtRp3958
(dp3959
g74
(dp3960
g82
I1
ssg83
g3954
sg76
(lp3961
g3762
(S's\x08\x00\x00\x00This App'
tRp3962
asbasbasbag69
(g85
g71
NtRp3963
(dp3964
g74
(dp3965
sg83
g3946
sg76
(lp3966
g69
(g90
g71
NtRp3967
(dp3968
g74
(dp3969
sg83
g3963
sg76
(lp3970
g69
(g70
g71
NtRp3971
(dp3972
g74
(dp3973
g82
I1
ssg83
g3967
sg76
(lp3974
I00
asbasbasbag69
(g85
g71
NtRp3975
(dp3976
g74
(dp3977
sg83
g3946
sg76
(lp3978
g69
(g90
g71
NtRp3979
(dp3980
g74
(dp3981
sg83
g3975
sg76
(lp3982
g69
(g70
g71
NtRp3983
(dp3984
g74
(dp3985
g82
I1
ssg83
g3979
sg76
(lp3986
S'/admin/default/design/testtest'
p3987
asbasbasbag69
(g85
g71
NtRp3988
(dp3989
g74
(dp3990
sg83
g3946
sg76
(lp3991
g69
(g90
g71
NtRp3992
(dp3993
g74
(dp3994
sg83
g3988
sg76
(lp3995
g69
(g70
g71
NtRp3996
(dp3997
g74
(dp3998
g82
I1
ssg83
g3992
sg76
(lp3999
(lp4000
(g3762
(S's\n\x00\x00\x00Controller'
tRp4001
I00
S'/admin/default/edit/testtest/controllers/utils.py'
tp4002
a(g3762
(S's\x04\x00\x00\x00View'
tRp4003
I00
S'/admin/default/edit/testtest/views/utils/api.html'
tp4004
a(g3762
(S's\x06\x00\x00\x00Layout'
tRp4005
I00
S'/admin/default/edit/testtest/views/layout.html'
tp4006
a(g3762
(S's\n\x00\x00\x00Stylesheet'
tRp4007
I00
S'/admin/default/edit/testtest/static/css/web2py.css'
tp4008
a(g3762
(S's\x08\x00\x00\x00DB Model'
tRp4009
I00
S'/admin/default/edit/testtest/models/db.py'
tp4010
a(g3762
(S's\n\x00\x00\x00Menu Model'
tRp4011
I00
S'/admin/default/edit/testtest/models/menu.py'
tp4012
a(g3762
(S's\x08\x00\x00\x00Database'
tRp4013
I00
S'/testtest/appadmin/index'
tp4014
a(g3762
(S's\x06\x00\x00\x00Errors'
tRp4015
I00
S'/admin/default/errors/testtest'
tp4016
a(g3762
(S's\x05\x00\x00\x00About'
tRp4017
I00
S'/admin/default/about/testtest'
tp4018
aasbasbasbasbasbasbasbag69
(g85
g71
NtRp4019
(dp4020
g74
(dp4021
sg83
g3876
sg76
(lp4022
g69
(g90
g71
NtRp4023
(dp4024
g74
(dp4025
sg83
g4019
sg76
(lp4026
g69
(g70
g71
NtRp4027
(dp4028
g74
(dp4029
g82
I2
ssg83
g4023
sg76
(lp4030
g69
(g78
g71
NtRp4031
(dp4032
g74
(dp4033
g82
I1
ssg83
Nsg76
(lp4034
g69
(g85
g71
NtRp4035
(dp4036
g74
(dp4037
sg83
g4031
sg76
(lp4038
g69
(g90
g71
NtRp4039
(dp4040
g74
(dp4041
sg83
g4035
sg76
(lp4042
g69
(g70
g71
NtRp4043
(dp4044
g74
(dp4045
g82
I1
ssg83
g4039
sg76
(lp4046
S'web2py.com'
p4047
asbasbasbag69
(g85
g71
NtRp4048
(dp4049
g74
(dp4050
sg83
g4031
sg76
(lp4051
g69
(g90
g71
NtRp4052
(dp4053
g74
(dp4054
sg83
g4048
sg76
(lp4055
g69
(g70
g71
NtRp4056
(dp4057
g74
(dp4058
g82
I1
ssg83
g4052
sg76
(lp4059
I00
asbasbasbag69
(g85
g71
NtRp4060
(dp4061
g74
(dp4062
sg83
g4031
sg76
(lp4063
g69
(g90
g71
NtRp4064
(dp4065
g74
(dp4066
sg83
g4060
sg76
(lp4067
g69
(g70
g71
NtRp4068
(dp4069
g74
(dp4070
g82
I1
ssg83
g4064
sg76
(lp4071
S'http://www.web2py.com'
p4072
asbasbasbag69
(g85
g71
NtRp4073
(dp4074
g74
(dp4075
sg83
g4031
sg76
(lp4076
g69
(g90
g71
NtRp4077
(dp4078
g74
(dp4079
sg83
g4073
sg76
(lp4080
g69
(g70
g71
NtRp4081
(dp4082
g74
(dp4083
g82
I1
ssg83
g4077
sg76
(lp4084
(lp4085
(g3762
(S's\x08\x00\x00\x00Download'
tRp4086
I00
S'http://www.web2py.com/examples/default/download'
p4087
tp4088
a(g3762
(S's\x07\x00\x00\x00Support'
tRp4089
I00
S'http://www.web2py.com/examples/default/support'
p4090
tp4091
a(g3762
(S's\x04\x00\x00\x00Demo'
tRp4092
I00
S'http://web2py.com/demo_admin'
p4093
tp4094
a(g3762
(S's\x0e\x00\x00\x00Quick Examples'
tRp4095
I00
S'http://web2py.com/examples/default/examples'
p4096
tp4097
a(g3762
(S's\x03\x00\x00\x00FAQ'
tRp4098
I00
S'http://web2py.com/AlterEgo'
p4099
tp4100
a(g3762
(S's\x06\x00\x00\x00Videos'
tRp4101
I00
S'http://www.web2py.com/examples/default/videos/'
p4102
tp4103
a(g3762
(S's\x11\x00\x00\x00Free Applications'
tRp4104
I00
S'http://web2py.com/appliances'
p4105
tp4106
a(g3762
(S's\x07\x00\x00\x00Plugins'
tRp4107
I00
S'http://web2py.com/plugins'
p4108
tp4109
a(g3762
(S's\x07\x00\x00\x00Layouts'
tRp4110
I00
S'http://web2py.com/layouts'
p4111
tp4112
a(g3762
(S's\x07\x00\x00\x00Recipes'
tRp4113
I00
S'http://web2pyslices.com/'
p4114
tp4115
a(g3762
(S's\x08\x00\x00\x00Semantic'
tRp4116
I00
S'http://web2py.com/semantic'
p4117
tp4118
aasbasbasbasbasbasbasbag69
(g85
g71
NtRp4119
(dp4120
g74
(dp4121
sg83
g3876
sg76
(lp4122
g69
(g90
g71
NtRp4123
(dp4124
g74
(dp4125
sg83
g4119
sg76
(lp4126
g69
(g70
g71
NtRp4127
(dp4128
g74
(dp4129
g82
I2
ssg83
g4123
sg76
(lp4130
g69
(g78
g71
NtRp4131
(dp4132
g74
(dp4133
g82
I1
ssg83
Nsg76
(lp4134
g69
(g85
g71
NtRp4135
(dp4136
g74
(dp4137
sg83
g4131
sg76
(lp4138
g69
(g90
g71
NtRp4139
(dp4140
g74
(dp4141
sg83
g4135
sg76
(lp4142
g69
(g70
g71
NtRp4143
(dp4144
g74
(dp4145
g82
I1
ssg83
g4139
sg76
(lp4146
g3762
(S's\r\x00\x00\x00Documentation'
tRp4147
asbasbasbag69
(g85
g71
NtRp4148
(dp4149
g74
(dp4150
sg83
g4131
sg76
(lp4151
g69
(g90
g71
NtRp4152
(dp4153
g74
(dp4154
sg83
g4148
sg76
(lp4155
g69
(g70
g71
NtRp4156
(dp4157
g74
(dp4158
g82
I1
ssg83
g4152
sg76
(lp4159
I00
asbasbasbag69
(g85
g71
NtRp4160
(dp4161
g74
(dp4162
sg83
g4131
sg76
(lp4163
g69
(g90
g71
NtRp4164
(dp4165
g74
(dp4166
sg83
g4160
sg76
(lp4167
g69
(g70
g71
NtRp4168
(dp4169
g74
(dp4170
g82
I1
ssg83
g4164
sg76
(lp4171
S'http://www.web2py.com/book'
p4172
asbasbasbag69
(g85
g71
NtRp4173
(dp4174
g74
(dp4175
sg83
g4131
sg76
(lp4176
g69
(g90
g71
NtRp4177
(dp4178
g74
(dp4179
sg83
g4173
sg76
(lp4180
g69
(g70
g71
NtRp4181
(dp4182
g74
(dp4183
g82
I1
ssg83
g4177
sg76
(lp4184
(lp4185
(g3762
(S's\x07\x00\x00\x00Preface'
tRp4186
I00
S'http://www.web2py.com/book/default/chapter/00'
p4187
tp4188
a(g3762
(S's\x0c\x00\x00\x00Introduction'
tRp4189
I00
S'http://www.web2py.com/book/default/chapter/01'
p4190
tp4191
a(g3762
(S's\x06\x00\x00\x00Python'
tRp4192
I00
S'http://www.web2py.com/book/default/chapter/02'
p4193
tp4194
a(g3762
(S's\x08\x00\x00\x00Overview'
tRp4195
I00
S'http://www.web2py.com/book/default/chapter/03'
p4196
tp4197
a(g3762
(S's\x08\x00\x00\x00The Core'
tRp4198
I00
S'http://www.web2py.com/book/default/chapter/04'
p4199
tp4200
a(g3762
(S's\t\x00\x00\x00The Views'
tRp4201
I00
S'http://www.web2py.com/book/default/chapter/05'
p4202
tp4203
a(g3762
(S's\x08\x00\x00\x00Database'
tRp4204
I00
S'http://www.web2py.com/book/default/chapter/06'
p4205
tp4206
a(g3762
(S's\x14\x00\x00\x00Forms and Validators'
tRp4207
I00
S'http://www.web2py.com/book/default/chapter/07'
p4208
tp4209
a(g3762
(S's\r\x00\x00\x00Email and SMS'
tRp4210
I00
S'http://www.web2py.com/book/default/chapter/08'
p4211
tp4212
a(g3762
(S's\x0e\x00\x00\x00Access Control'
tRp4213
I00
S'http://www.web2py.com/book/default/chapter/09'
p4214
tp4215
a(g3762
(S's\x08\x00\x00\x00Services'
tRp4216
I00
S'http://www.web2py.com/book/default/chapter/10'
p4217
tp4218
a(g3762
(S's\x0c\x00\x00\x00Ajax Recipes'
tRp4219
I00
S'http://www.web2py.com/book/default/chapter/11'
p4220
tp4221
a(g3762
(S's\x16\x00\x00\x00Components and Plugins'
tRp4222
I00
S'http://www.web2py.com/book/default/chapter/12'
p4223
tp4224
a(g3762
(S's\x12\x00\x00\x00Deployment Recipes'
tRp4225
I00
S'http://www.web2py.com/book/default/chapter/13'
p4226
tp4227
a(g3762
(S's\r\x00\x00\x00Other Recipes'
tRp4228
I00
S'http://www.web2py.com/book/default/chapter/14'
p4229
tp4230
a(g3762
(S's\r\x00\x00\x00Buy this book'
tRp4231
I00
S'http://stores.lulu.com/web2py'
p4232
tp4233
aasbasbasbasbasbasbasbag69
(g85
g71
NtRp4234
(dp4235
g74
(dp4236
sg83
g3876
sg76
(lp4237
g69
(g90
g71
NtRp4238
(dp4239
g74
(dp4240
sg83
g4234
sg76
(lp4241
g69
(g70
g71
NtRp4242
(dp4243
g74
(dp4244
g82
I2
ssg83
g4238
sg76
(lp4245
g69
(g78
g71
NtRp4246
(dp4247
g74
(dp4248
g82
I1
ssg83
Nsg76
(lp4249
g69
(g85
g71
NtRp4250
(dp4251
g74
(dp4252
sg83
g4246
sg76
(lp4253
g69
(g90
g71
NtRp4254
(dp4255
g74
(dp4256
sg83
g4250
sg76
(lp4257
g69
(g70
g71
NtRp4258
(dp4259
g74
(dp4260
g82
I1
ssg83
g4254
sg76
(lp4261
g3762
(S's\t\x00\x00\x00Community'
tRp4262
asbasbasbag69
(g85
g71
NtRp4263
(dp4264
g74
(dp4265
sg83
g4246
sg76
(lp4266
g69
(g90
g71
NtRp4267
(dp4268
g74
(dp4269
sg83
g4263
sg76
(lp4270
g69
(g70
g71
NtRp4271
(dp4272
g74
(dp4273
g82
I1
ssg83
g4267
sg76
(lp4274
I00
asbasbasbag69
(g85
g71
NtRp4275
(dp4276
g74
(dp4277
sg83
g4246
sg76
(lp4278
g69
(g90
g71
NtRp4279
(dp4280
g74
(dp4281
sg83
g4275
sg76
(lp4282
g69
(g70
g71
NtRp4283
(dp4284
g74
(dp4285
g82
I1
ssg83
g4279
sg76
(lp4286
Nasbasbasbag69
(g85
g71
NtRp4287
(dp4288
g74
(dp4289
sg83
g4246
sg76
(lp4290
g69
(g90
g71
NtRp4291
(dp4292
g74
(dp4293
sg83
g4287
sg76
(lp4294
g69
(g70
g71
NtRp4295
(dp4296
g74
(dp4297
g82
I1
ssg83
g4291
sg76
(lp4298
(lp4299
(g3762
(S's\x06\x00\x00\x00Groups'
tRp4300
I00
S'http://www.web2py.com/examples/default/usergroups'
p4301
tp4302
a(g3762
(S's\x07\x00\x00\x00Twitter'
tRp4303
I00
S'http://twitter.com/web2py'
p4304
tp4305
a(g3762
(S's\t\x00\x00\x00Live Chat'
tRp4306
I00
S'http://webchat.freenode.net/?channels=web2py'
p4307
tp4308
aasbasbasbasbasbasbasbag69
(g85
g71
NtRp4309
(dp4310
g74
(dp4311
sg83
g3876
sg76
(lp4312
g69
(g90
g71
NtRp4313
(dp4314
g74
(dp4315
sg83
g4309
sg76
(lp4316
g69
(g70
g71
NtRp4317
(dp4318
g74
(dp4319
g82
I2
ssg83
g4313
sg76
(lp4320
g69
(g78
g71
NtRp4321
(dp4322
g74
(dp4323
g82
I1
ssg83
Nsg76
(lp4324
g69
(g85
g71
NtRp4325
(dp4326
g74
(dp4327
sg83
g4321
sg76
(lp4328
g69
(g90
g71
NtRp4329
(dp4330
g74
(dp4331
sg83
g4325
sg76
(lp4332
g69
(g70
g71
NtRp4333
(dp4334
g74
(dp4335
g82
I1
ssg83
g4329
sg76
(lp4336
g3762
(S's\x07\x00\x00\x00Plugins'
tRp4337
asbasbasbag69
(g85
g71
NtRp4338
(dp4339
g74
(dp4340
sg83
g4321
sg76
(lp4341
g69
(g90
g71
NtRp4342
(dp4343
g74
(dp4344
sg83
g4338
sg76
(lp4345
g69
(g70
g71
NtRp4346
(dp4347
g74
(dp4348
g82
I1
ssg83
g4342
sg76
(lp4349
I00
asbasbasbag69
(g85
g71
NtRp4350
(dp4351
g74
(dp4352
sg83
g4321
sg76
(lp4353
g69
(g90
g71
NtRp4354
(dp4355
g74
(dp4356
sg83
g4350
sg76
(lp4357
g69
(g70
g71
NtRp4358
(dp4359
g74
(dp4360
g82
I1
ssg83
g4354
sg76
(lp4361
Nasbasbasbag69
(g85
g71
NtRp4362
(dp4363
g74
(dp4364
sg83
g4321
sg76
(lp4365
g69
(g90
g71
NtRp4366
(dp4367
g74
(dp4368
sg83
g4362
sg76
(lp4369
g69
(g70
g71
NtRp4370
(dp4371
g74
(dp4372
g82
I1
ssg83
g4366
sg76
(lp4373
(lp4374
(S'plugin_wiki'
p4375
I00
S'http://web2py.com/examples/default/download'
p4376
tp4377
a(g3762
(S's\r\x00\x00\x00Other Plugins'
tRp4378
I00
g4108
tp4379
a(g3762
(S's\x0e\x00\x00\x00Layout Plugins'
tRp4380
I00
g4111
tp4381
aasbasbasbasbasbasbasbasbasbasbasbasbasbasbasbasbasbasbasbag69
(g85
g71
NtRp4382
(dp4383
g74
(dp4384
sg83
g3257
sg76
(lp4385
g69
(g90
g71
NtRp4386
(dp4387
g74
(dp4388
g94
g95
ssg83
g4382
sg76
(lp4389
S'meta'
p4390
asbag69
(g90
g71
NtRp4391
(dp4392
g74
(dp4393
g101
g102
ssg83
g4382
sg76
(lp4394
S':'
asbag69
(g90
g71
NtRp4395
(dp4396
g74
(dp4397
sg83
g4382
sg76
(lp4398
g69
(g70
g71
NtRp4399
(dp4400
g74
(dp4401
g82
I5
ssg83
g4395
sg76
(lp4402
g69
(g78
g71
NtRp4403
(dp4404
g74
(dp4405
g82
I4
ssg83
Nsg76
(lp4406
g69
(g85
g71
NtRp4407
(dp4408
g74
(dp4409
sg83
g4403
sg76
(lp4410
g69
(g90
g71
NtRp4411
(dp4412
g74
(dp4413
g94
g95
ssg83
g4407
sg76
(lp4414
S'author'
p4415
asbag69
(g90
g71
NtRp4416
(dp4417
g74
(dp4418
g101
g102
ssg83
g4407
sg76
(lp4419
S':'
asbag69
(g90
g71
NtRp4420
(dp4421
g74
(dp4422
sg83
g4407
sg76
(lp4423
g69
(g70
g71
NtRp4424
(dp4425
g74
(dp4426
g82
I4
ssg83
g4420
sg76
(lp4427
S'Your Name <you@example.com>'
p4428
asbasbasbag69
(g85
g71
NtRp4429
(dp4430
g74
(dp4431
sg83
g4403
sg76
(lp4432
g69
(g90
g71
NtRp4433
(dp4434
g74
(dp4435
g94
g95
ssg83
g4429
sg76
(lp4436
S'copyright'
p4437
asbag69
(g90
g71
NtRp4438
(dp4439
g74
(dp4440
g101
g102
ssg83
g4429
sg76
(lp4441
S':'
asbag69
(g90
g71
NtRp4442
(dp4443
g74
(dp4444
sg83
g4429
sg76
(lp4445
g69
(g70
g71
NtRp4446
(dp4447
g74
(dp4448
g82
I4
ssg83
g4442
sg76
(lp4449
S'Copyright 2011'
p4450
asbasbasbag69
(g85
g71
NtRp4451
(dp4452
g74
(dp4453
sg83
g4403
sg76
(lp4454
g69
(g90
g71
NtRp4455
(dp4456
g74
(dp4457
g94
g95
ssg83
g4451
sg76
(lp4458
S'description'
p4459
asbag69
(g90
g71
NtRp4460
(dp4461
g74
(dp4462
g101
g102
ssg83
g4451
sg76
(lp4463
S':'
asbag69
(g90
g71
NtRp4464
(dp4465
g74
(dp4466
sg83
g4451
sg76
(lp4467
g69
(g70
g71
NtRp4468
(dp4469
g74
(dp4470
g82
I4
ssg83
g4464
sg76
(lp4471
S'a cool new app'
p4472
asbasbasbag69
(g85
g71
NtRp4473
(dp4474
g74
(dp4475
sg83
g4403
sg76
(lp4476
g69
(g90
g71
NtRp4477
(dp4478
g74
(dp4479
g94
g95
ssg83
g4473
sg76
(lp4480
S'generator'
p4481
asbag69
(g90
g71
NtRp4482
(dp4483
g74
(dp4484
g101
g102
ssg83
g4473
sg76
(lp4485
S':'
asbag69
(g90
g71
NtRp4486
(dp4487
g74
(dp4488
sg83
g4473
sg76
(lp4489
g69
(g70
g71
NtRp4490
(dp4491
g74
(dp4492
g82
I4
ssg83
g4486
sg76
(lp4493
S'Web2py Web Framework'
p4494
asbasbasbag69
(g85
g71
NtRp4495
(dp4496
g74
(dp4497
sg83
g4403
sg76
(lp4498
g69
(g90
g71
NtRp4499
(dp4500
g74
(dp4501
g94
g95
ssg83
g4495
sg76
(lp4502
S'keywords'
p4503
asbag69
(g90
g71
NtRp4504
(dp4505
g74
(dp4506
g101
g102
ssg83
g4495
sg76
(lp4507
S':'
asbag69
(g90
g71
NtRp4508
(dp4509
g74
(dp4510
sg83
g4495
sg76
(lp4511
g69
(g70
g71
NtRp4512
(dp4513
g74
(dp4514
g82
I4
ssg83
g4508
sg76
(lp4515
S'web2py, python, framework'
p4516
asbasbasbasbasbasbasbag69
(g85
g71
NtRp4517
(dp4518
g74
(dp4519
sg83
g3257
sg76
(lp4520
g69
(g90
g71
NtRp4521
(dp4522
g74
(dp4523
g94
g95
ssg83
g4517
sg76
(lp4524
S'postprocessing'
p4525
asbag69
(g90
g71
NtRp4526
(dp4527
g74
(dp4528
g101
g102
ssg83
g4517
sg76
(lp4529
S':'
asbag69
(g90
g71
NtRp4530
(dp4531
g74
(dp4532
sg83
g4517
sg76
(lp4533
g69
(g70
g71
NtRp4534
(dp4535
g74
(dp4536
g82
I5
ssg83
g4530
sg76
(lp4537
g69
(g78
g71
NtRp4538
(dp4539
g74
(dp4540
g82
I4
ssg83
Nsg76
(lp4541
sbasbasbasbag69
(g85
g71
NtRp4542
(dp4543
g74
(dp4544
sg83
g3257
sg76
(lp4545
g69
(g90
g71
NtRp4546
(dp4547
g74
(dp4548
g94
g95
ssg83
g4542
sg76
(lp4549
S'session_file'
p4550
asbag69
(g90
g71
NtRp4551
(dp4552
g74
(dp4553
g101
g102
ssg83
g4542
sg76
(lp4554
S':'
asbag69
(g90
g71
NtRp4555
(dp4556
g74
(dp4557
sg83
g4542
sg76
(lp4558
g69
(g70
g71
NtRp4559
(dp4560
g74
(dp4561
g82
I5
ssg83
g4555
sg76
(lp4562
S"<open file '/home/andromeda/work/graphing/web2py/applications/testtest/sessions/127.0.0.1-4ad632aa-8339-462d-96fe-1d877bdde192', mode 'rb+' at 0x3387ed0>"
p4563
asbasbasbag69
(g85
g71
NtRp4564
(dp4565
g74
(dp4566
sg83
g3257
sg76
(lp4567
g69
(g90
g71
NtRp4568
(dp4569
g74
(dp4570
g94
g95
ssg83
g4564
sg76
(lp4571
S'session_filename'
p4572
asbag69
(g90
g71
NtRp4573
(dp4574
g74
(dp4575
g101
g102
ssg83
g4564
sg76
(lp4576
S':'
asbag69
(g90
g71
NtRp4577
(dp4578
g74
(dp4579
sg83
g4564
sg76
(lp4580
g69
(g70
g71
NtRp4581
(dp4582
g74
(dp4583
g82
I5
ssg83
g4577
sg76
(lp4584
S'/home/andromeda/work/graphing/web2py/applications/testtest/sessions/127.0.0.1-4ad632aa-8339-462d-96fe-1d877bdde192'
p4585
asbasbasbag69
(g85
g71
NtRp4586
(dp4587
g74
(dp4588
sg83
g3257
sg76
(lp4589
g69
(g90
g71
NtRp4590
(dp4591
g74
(dp4592
g94
g95
ssg83
g4586
sg76
(lp4593
S'session_id'
p4594
asbag69
(g90
g71
NtRp4595
(dp4596
g74
(dp4597
g101
g102
ssg83
g4586
sg76
(lp4598
S':'
asbag69
(g90
g71
NtRp4599
(dp4600
g74
(dp4601
sg83
g4586
sg76
(lp4602
g69
(g70
g71
NtRp4603
(dp4604
g74
(dp4605
g82
I5
ssg83
g4599
sg76
(lp4606
S'127.0.0.1-4ad632aa-8339-462d-96fe-1d877bdde192'
p4607
asbasbasbag69
(g85
g71
NtRp4608
(dp4609
g74
(dp4610
sg83
g3257
sg76
(lp4611
g69
(g90
g71
NtRp4612
(dp4613
g74
(dp4614
g94
g95
ssg83
g4608
sg76
(lp4615
S'session_id_name'
p4616
asbag69
(g90
g71
NtRp4617
(dp4618
g74
(dp4619
g101
g102
ssg83
g4608
sg76
(lp4620
S':'
asbag69
(g90
g71
NtRp4621
(dp4622
g74
(dp4623
sg83
g4608
sg76
(lp4624
g69
(g70
g71
NtRp4625
(dp4626
g74
(dp4627
g82
I5
ssg83
g4621
sg76
(lp4628
g3314
asbasbasbag69
(g85
g71
NtRp4629
(dp4630
g74
(dp4631
sg83
g3257
sg76
(lp4632
g69
(g90
g71
NtRp4633
(dp4634
g74
(dp4635
g94
g95
ssg83
g4629
sg76
(lp4636
S'session_locked'
p4637
asbag69
(g90
g71
NtRp4638
(dp4639
g74
(dp4640
g101
g102
ssg83
g4629
sg76
(lp4641
S':'
asbag69
(g90
g71
NtRp4642
(dp4643
g74
(dp4644
sg83
g4629
sg76
(lp4645
g69
(g70
g71
NtRp4646
(dp4647
g74
(dp4648
g82
I5
ssg83
g4642
sg76
(lp4649
g112
asbasbasbag69
(g85
g71
NtRp4650
(dp4651
g74
(dp4652
sg83
g3257
sg76
(lp4653
g69
(g90
g71
NtRp4654
(dp4655
g74
(dp4656
g94
g95
ssg83
g4650
sg76
(lp4657
S'session_new'
p4658
asbag69
(g90
g71
NtRp4659
(dp4660
g74
(dp4661
g101
g102
ssg83
g4650
sg76
(lp4662
S':'
asbag69
(g90
g71
NtRp4663
(dp4664
g74
(dp4665
sg83
g4650
sg76
(lp4666
g69
(g70
g71
NtRp4667
(dp4668
g74
(dp4669
g82
I5
ssg83
g4663
sg76
(lp4670
g972
asbasbasbag69
(g85
g71
NtRp4671
(dp4672
g74
(dp4673
sg83
g3257
sg76
(lp4674
g69
(g90
g71
NtRp4675
(dp4676
g74
(dp4677
g94
g95
ssg83
g4671
sg76
(lp4678
S'status'
p4679
asbag69
(g90
g71
NtRp4680
(dp4681
g74
(dp4682
g101
g102
ssg83
g4671
sg76
(lp4683
S':'
asbag69
(g90
g71
NtRp4684
(dp4685
g74
(dp4686
sg83
g4671
sg76
(lp4687
g69
(g70
g71
NtRp4688
(dp4689
g74
(dp4690
g82
I5
ssg83
g4684
sg76
(lp4691
S'200'
p4692
asbasbasbag69
(g85
g71
NtRp4693
(dp4694
g74
(dp4695
sg83
g3257
sg76
(lp4696
g69
(g90
g71
NtRp4697
(dp4698
g74
(dp4699
g94
g95
ssg83
g4693
sg76
(lp4700
S'subtitle'
p4701
asbag69
(g90
g71
NtRp4702
(dp4703
g74
(dp4704
g101
g102
ssg83
g4693
sg76
(lp4705
S':'
asbag69
(g90
g71
NtRp4706
(dp4707
g74
(dp4708
sg83
g4693
sg76
(lp4709
g69
(g70
g71
NtRp4710
(dp4711
g74
(dp4712
g82
I5
ssg83
g4706
sg76
(lp4713
g3762
(S's\r\x00\x00\x00customize me!'
tRp4714
asbasbasbag69
(g85
g71
NtRp4715
(dp4716
g74
(dp4717
sg83
g3257
sg76
(lp4718
g69
(g90
g71
NtRp4719
(dp4720
g74
(dp4721
g94
g95
ssg83
g4715
sg76
(lp4722
S'title'
p4723
asbag69
(g90
g71
NtRp4724
(dp4725
g74
(dp4726
g101
g102
ssg83
g4715
sg76
(lp4727
S':'
asbag69
(g90
g71
NtRp4728
(dp4729
g74
(dp4730
sg83
g4715
sg76
(lp4731
g69
(g70
g71
NtRp4732
(dp4733
g74
(dp4734
g82
I5
ssg83
g4728
sg76
(lp4735
S'Testtest'
p4736
asbasbasbag69
(g85
g71
NtRp4737
(dp4738
g74
(dp4739
sg83
g3257
sg76
(lp4740
g69
(g90
g71
NtRp4741
(dp4742
g74
(dp4743
g94
g95
ssg83
g4737
sg76
(lp4744
g2442
asbag69
(g90
g71
NtRp4745
(dp4746
g74
(dp4747
g101
g102
ssg83
g4737
sg76
(lp4748
S':'
asbag69
(g90
g71
NtRp4749
(dp4750
g74
(dp4751
sg83
g4737
sg76
(lp4752
g69
(g70
g71
NtRp4753
(dp4754
g74
(dp4755
g82
I5
ssg83
g4749
sg76
(lp4756
g2455
asbasbasbag69
(g85
g71
NtRp4757
(dp4758
g74
(dp4759
sg83
g3257
sg76
(lp4760
g69
(g90
g71
NtRp4761
(dp4762
g74
(dp4763
g94
g95
ssg83
g4757
sg76
(lp4764
S'view'
p4765
asbag69
(g90
g71
NtRp4766
(dp4767
g74
(dp4768
g101
g102
ssg83
g4757
sg76
(lp4769
S':'
asbag69
(g90
g71
NtRp4770
(dp4771
g74
(dp4772
sg83
g4757
sg76
(lp4773
g69
(g70
g71
NtRp4774
(dp4775
g74
(dp4776
g82
I5
ssg83
g4770
sg76
(lp4777
S'utils/api.html'
p4778
asbasbasbasbasbsS'locals'
p4779
(dp4780
g4
S"'/home/andromeda/work/graphing/web2py/applications/testtest/controllers/utils.py'"
p4781
sg6
S'\'\\n\\\'\\\'\\\'\\n1. Store data as\\n    {"timestamp":<>, "name...me,\\n    \\n}\\n\\nresponse._vars=response._caller(api)\\n\''
p4782
sssS'traceback'
p4783
S'Traceback (most recent call last):\n  File "/home/andromeda/work/graphing/web2py/gluon/restricted.py", line 203, in restricted\n    ccode = compile2(code,layer)\n  File "/home/andromeda/work/graphing/web2py/gluon/restricted.py", line 189, in compile2\n    return compile(code.rstrip().replace(\'\\r\\n\',\'\\n\')+\'\\n\', layer, \'exec\')\n  File "/home/andromeda/work/graphing/web2py/applications/testtest/controllers/utils.py", line 28\n    print **request.vars\n           ^\nSyntaxError: invalid syntax\n'
p4784
s.